
hello.cof:     file format coff-pic30

Disassembly of section .reset:

00000000 <.reset>:
   0:	10 11 04    	goto      0x1110 <__reset>
   2:	00 00 00 
Disassembly of section .text:

00001110 <__reset>:
    1110:	4f be 20    	mov.w     #0xbe4, w15
    1112:	0e ff 27    	mov.w     #0x7ff0, w14
    1114:	0e 01 88    	mov.w     w14, 0x20
    1116:	00 00 00    	nop       
    1118:	0c 00 07    	rcall     0x1132 <__psv_init>
    111a:	40 f1 22    	mov.w     #0x2f14, w0
    111c:	01 00 20    	mov.w     #0x0, w1
    111e:	0f 00 07    	rcall     0x113e <__data_init>
    1120:	00 00 20    	mov.w     #0x0, w0
    1122:	00 00 e0    	cp0.w     w0
    1124:	02 00 32    	bra       Z, 0x112a <L11>
    1126:	00 00 02    	call      0x0 <__DEFAULT_VECTOR-0x110c>
    1128:	00 00 00 

0000112a <L11>:
    112a:	d6 2f 02    	call      0x2fd6 <_main>
    112c:	00 00 00 
    112e:	00 40 da    	.pword 0xda4000
    1130:	00 00 fe    	reset     

00001132 <__psv_init>:
    1132:	00 06 20    	mov.w     #0x60, w0
    1134:	00 00 e0    	cp0.w     w0
    1136:	02 00 32    	bra       Z, 0x113c <L12>
    1138:	00 20 20    	mov.w     #0x200, w0
    113a:	90 01 88    	mov.w     w0, 0x32

0000113c <L12>:
    113c:	00 00 06    	return    

0000113e <__data_init>:
    113e:	a1 02 88    	mov.w     w1, 0x54
    1140:	80 00 78    	mov.w     w0, w1
    1142:	00 00 eb    	clr.w     w0
    1144:	1a 00 37    	bra       0x117a <L41>

00001146 <L11>:
    1146:	e2 80 40    	add.w     w1, #0x2, w1
    1148:	54 a0 b4    	addc.w    0x54
    114a:	91 01 ba    	tblrdl.w  [w1], w3
    114c:	e2 80 40    	add.w     w1, #0x2, w1
    114e:	54 a0 b4    	addc.w    0x54
    1150:	91 02 ba    	tblrdl.w  [w1], w5
    1152:	e2 80 40    	add.w     w1, #0x2, w1
    1154:	54 a0 b4    	addc.w    0x54
    1156:	00 02 eb    	clr.w     w4
    1158:	47 2b de    	lsr.w     w5, #0x7, w6
    115a:	f5 07 b2    	and.w     #0x7f, w5
    115c:	a6 01 88    	mov.w     w6, 0x34
    115e:	60 2c e1    	cp.b      w5, #0x0
    1160:	08 00 3a    	bra       NZ, 0x1172 <L21>

00001162 <L91>:
    1162:	00 49 eb    	clr.b     [w2]
    1164:	02 01 e8    	inc.w     w2, w2
    1166:	02 00 39    	bra       NC, 0x116c <L81>
    1168:	34 20 ec    	inc.w     0x34
    116a:	02 f0 a0    	bset.w    w2, #0xf

0000116c <L81>:
    116c:	83 01 e9    	dec.w     w3, w3
    116e:	f9 ff 3e    	bra       GTU, 0x1162 <L91>
    1170:	04 00 37    	bra       0x117a <L41>

00001172 <L21>:
    1172:	61 28 e1    	cp.w      w5, #0x1
    1174:	01 00 32    	bra       Z, 0x1178 <L31>
    1176:	00 82 eb    	setm.w    w4

00001178 <L31>:
    1178:	04 00 07    	rcall     0x1182 <L12>

0000117a <L41>:
    117a:	11 01 ba    	tblrdl.w  [w1], w2
    117c:	02 00 e0    	cp0.w     w2
    117e:	e3 ff 3a    	bra       NZ, 0x1146 <L11>
    1180:	00 00 06    	return    

00001182 <L12>:
    1182:	04 d0 a3    	btst.c    w4, #0xd
    1184:	e2 0f 49    	addc.w    w2, #0x2, [w15]
    1186:	1c 00 39    	bra       NC, 0x11c0 <L22>
    1188:	81 02 78    	mov.w     w1, w5
    118a:	35 49 ba    	tblrdl.b  [w5++], [w2]
    118c:	02 01 e8    	inc.w     w2, w2
    118e:	02 00 39    	bra       NC, 0x1194 <L32>
    1190:	34 20 ec    	inc.w     0x34
    1192:	02 f0 a0    	bset.w    w2, #0xf

00001194 <L32>:
    1194:	83 01 e9    	dec.w     w3, w3
    1196:	0f 00 32    	bra       Z, 0x11b6 <L42>
    1198:	25 49 ba    	tblrdl.b  [w5--], [w2]
    119a:	02 01 e8    	inc.w     w2, w2
    119c:	02 00 39    	bra       NC, 0x11a2 <L33>
    119e:	34 20 ec    	inc.w     0x34
    11a0:	02 f0 a0    	bset.w    w2, #0xf

000011a2 <L33>:
    11a2:	83 01 e9    	dec.w     w3, w3
    11a4:	08 00 32    	bra       Z, 0x11b6 <L42>
    11a6:	04 00 e0    	cp0.w     w4
    11a8:	06 00 32    	bra       Z, 0x11b6 <L42>
    11aa:	15 c9 ba    	tblrdh.b  [w5], [w2]
    11ac:	02 01 e8    	inc.w     w2, w2
    11ae:	02 00 39    	bra       NC, 0x11b4 <L34>
    11b0:	34 20 ec    	inc.w     0x34
    11b2:	02 f0 a0    	bset.w    w2, #0xf

000011b4 <L34>:
    11b4:	83 01 e9    	dec.w     w3, w3

000011b6 <L42>:
    11b6:	81 80 e8    	inc2.w    w1, w1
    11b8:	54 a0 b4    	addc.w    0x54
    11ba:	03 00 e0    	cp0.w     w3
    11bc:	e2 ff 3a    	bra       NZ, 0x1182 <L12>
    11be:	00 00 06    	return    

000011c0 <L22>:
    11c0:	91 02 ba    	tblrdl.w  [w1], w5
    11c2:	05 59 78    	mov.b     w5, [w2++]
    11c4:	83 01 e9    	dec.w     w3, w3
    11c6:	f7 ff 32    	bra       Z, 0x11b6 <L42>
    11c8:	c8 2a de    	lsr.w     w5, #0x8, w5
    11ca:	05 59 78    	mov.b     w5, [w2++]
    11cc:	83 01 e9    	dec.w     w3, w3
    11ce:	f3 ff 32    	bra       Z, 0x11b6 <L42>
    11d0:	04 00 e0    	cp0.w     w4
    11d2:	f1 ff 32    	bra       Z, 0x11b6 <L42>
    11d4:	11 d9 ba    	tblrdh.b  [w1], [w2++]
    11d6:	ee ff 37    	bra       0x11b4 <L34>

000011d8 <.handle>:
    11d8:	48 2a 04    	goto      0x2a48 <___digitalRead>
    11da:	00 00 00 
    11dc:	04 2a 04    	goto      0x2a04 <___digitalWrite>
    11de:	00 00 00 
    11e0:	70 2a 04    	goto      0x2a70 <___analogRead>
    11e2:	00 00 00 
    11e4:	6a 1c 04    	goto      0x1c6a <___putc_nobuffer>
    11e6:	00 00 00 
    11e8:	b8 1c 04    	goto      0x1cb8 <___putc_buffer>
    11ea:	00 00 00 
    11ec:	8c 1c 04    	goto      0x1c8c <___getc_nobuffer>
    11ee:	00 00 00 
    11f0:	a2 1d 04    	goto      0x1da2 <___getc_buffer>
    11f2:	00 00 00 

000011f4 <___gesf2>:
    11f4:	f4 ff 2f    	mov.w     #0xffff, w4
    11f6:	bd 00 37    	bra       0x1372 <__fcompare>

000011f8 <___eqsf2>:
    11f8:	14 00 20    	mov.w     #0x1, w4
    11fa:	bb 00 37    	bra       0x1372 <__fcompare>

000011fc <___divsf3>:
    11fc:	88 9f be    	mov.d     w8, [w15++]
    11fe:	8a 9f be    	mov.d     w10, [w15++]
    1200:	8c 1f 78    	mov.w     w12, [w15++]
    1202:	d2 00 07    	rcall     0x13a8 <__funpack2>
    1204:	d9 00 33    	bra       N, 0x13b8 <__fPropagateNaN>
    1206:	03 86 6c    	xor.w     w9, w3, w12
    1208:	64 50 e1    	cp.w      w10, #0x4
    120a:	2e 00 32    	bra       Z, 0x1268 <aisinfinite>
    120c:	64 20 e1    	cp.w      w4, #0x4
    120e:	33 00 32    	bra       Z, 0x1276 <returnZero>
    1210:	61 50 e1    	cp.w      w10, #0x1
    1212:	2f 00 32    	bra       Z, 0x1272 <aiszero>
    1214:	61 20 e1    	cp.w      w4, #0x1
    1216:	31 00 32    	bra       Z, 0x127a <returnInf>

00001218 <finitenonzero>:
    1218:	85 85 55    	sub.w     w11, w5, w11
    121a:	eb 07 b0    	add.w     #0x7e, w11
    121c:	09 00 20    	mov.w     #0x0, w9
    121e:	08 04 20    	mov.w     #0x40, w8
    1220:	05 00 37    	bra       0x122c <diventry>

00001222 <divnext>:
    1222:	08 04 44    	add.w     w8, w8, w8
    1224:	89 84 4c    	addc.w    w9, w9, w9
    1226:	0a 00 31    	bra       C, 0x123c <divdone>

00001228 <divloop>:
    1228:	06 03 43    	add.w     w6, w6, w6
    122a:	87 83 4b    	addc.w    w7, w7, w7

0000122c <diventry>:
    122c:	00 01 53    	sub.w     w6, w0, w2
    122e:	81 81 5b    	subb.w    w7, w1, w3
    1230:	f8 ff 33    	bra       N, 0x1222 <divnext>
    1232:	02 03 be    	mov.d     w2, w6
    1234:	08 00 a0    	bset.w    w8, #0x0
    1236:	08 04 44    	add.w     w8, w8, w8
    1238:	89 84 4c    	addc.w    w9, w9, w9
    123a:	f6 ff 39    	bra       NC, 0x1228 <divloop>

0000123c <divdone>:
    123c:	c6 39 dd    	sl.w      w7, #0x6, w3
    123e:	83 01 73    	ior.w     w6, w3, w3
    1240:	01 00 32    	bra       Z, 0x1244 <stickyok>
    1242:	13 00 20    	mov.w     #0x1, w3

00001244 <stickyok>:
    1244:	89 04 d1    	lsr.w     w9, w9
    1246:	08 84 d3    	rrc.w     w8, w8
    1248:	09 98 a3    	btst.z    w9, #0x9
    124a:	05 00 32    	bra       Z, 0x1256 <guardused>
    124c:	08 00 a7    	btsc.w    w8, #0x0
    124e:	03 00 a0    	bset.w    w3, #0x0
    1250:	89 04 d1    	lsr.w     w9, w9
    1252:	08 84 d3    	rrc.w     w8, w8
    1254:	8b 05 e8    	inc.w     w11, w11

00001256 <guardused>:
    1256:	89 04 d1    	lsr.w     w9, w9
    1258:	08 84 d3    	rrc.w     w8, w8
    125a:	00 01 eb    	clr.w     w2
    125c:	02 81 d2    	rlc.w     w2, w2
    125e:	bc 00 07    	rcall     0x13d8 <__fpack>

00001260 <return0>:
    1260:	01 f0 a1    	bclr.w    w1, #0xf
    1262:	0c f0 a7    	btsc.w    w12, #0xf
    1264:	01 f0 a0    	bset.w    w1, #0xf
    1266:	b1 00 37    	bra       0x13ca <__fbopExit>

00001268 <aisinfinite>:
    1268:	64 20 e1    	cp.w      w4, #0x4
    126a:	b3 00 32    	bra       Z, 0x13d2 <__fbopReturnNaN>

0000126c <return8>:
    126c:	08 01 be    	mov.d     w8, w2

0000126e <return2>:
    126e:	02 00 be    	mov.d     w2, w0
    1270:	f7 ff 37    	bra       0x1260 <return0>

00001272 <aiszero>:
    1272:	61 20 e1    	cp.w      w4, #0x1
    1274:	ae 00 32    	bra       Z, 0x13d2 <__fbopReturnNaN>

00001276 <returnZero>:
    1276:	60 00 b8    	mul.uu    w0, #0x0, w0
    1278:	f3 ff 37    	bra       0x1260 <return0>

0000127a <returnInf>:
    127a:	00 00 20    	mov.w     #0x0, w0
    127c:	01 f8 27    	mov.w     #0x7f80, w1
    127e:	f0 ff 37    	bra       0x1260 <return0>

00001280 <___subsf3>:
    1280:	03 f0 a2    	btg.w     w3, #0xf

00001282 <___addsf3>:
    1282:	88 9f be    	mov.d     w8, [w15++]
    1284:	8a 9f be    	mov.d     w10, [w15++]
    1286:	8c 1f 78    	mov.w     w12, [w15++]
    1288:	8f 00 07    	rcall     0x13a8 <__funpack2>
    128a:	96 00 33    	bra       N, 0x13b8 <__fPropagateNaN>
    128c:	64 50 e1    	cp.w      w10, #0x4
    128e:	4f 00 32    	bra       Z, 0x132e <aisinfinite>

00001290 <checkspecialb>:
    1290:	64 20 e1    	cp.w      w4, #0x4
    1292:	52 00 32    	bra       Z, 0x1338 <return2>
    1294:	03 82 6c    	xor.w     w9, w3, w4
    1296:	07 00 3b    	bra       NN, 0x12a6 <getsign>
    1298:	09 05 d0    	sl.w      w9, w10
    129a:	03 06 d0    	sl.w      w3, w12
    129c:	82 0f 54    	sub.w     w8, w2, [w15]
    129e:	0c 06 5d    	subb.w    w10, w12, w12
    12a0:	02 00 39    	bra       NC, 0x12a6 <getsign>
    12a2:	02 00 32    	bra       Z, 0x12a8 <gotsign>
    12a4:	89 01 78    	mov.w     w9, w3

000012a6 <getsign>:
    12a6:	03 06 78    	mov.w     w3, w12

000012a8 <gotsign>:
    12a8:	85 82 55    	sub.w     w11, w5, w5
    12aa:	04 00 3d    	bra       GE, 0x12b4 <expcanonical>
    12ac:	00 03 fd    	exch      w0, w6
    12ae:	81 03 fd    	exch      w1, w7
    12b0:	85 02 ea    	neg.w     w5, w5
    12b2:	8b 85 42    	add.w     w5, w11, w11

000012b4 <expcanonical>:
    12b4:	84 0f 72    	ior.w     w4, w4, [w15]
    12b6:	02 00 3b    	bra       NN, 0x12bc <nonegate>
    12b8:	60 00 10    	subr.w    w0, #0x0, w0
    12ba:	e0 80 18    	subbr.w   w1, #0x0, w1

000012bc <nonegate>:
    12bc:	60 11 b8    	mul.uu    w2, #0x0, w2
    12be:	00 05 eb    	clr.w     w10
    12c0:	7a 28 e1    	cp.w      w5, #0x1a
    12c2:	0a 00 39    	bra       NC, 0x12d8 <aligniter>
    12c4:	06 00 78    	mov.w     w6, w0
    12c6:	c7 5d dd    	sl.w      w11, #0x7, w11
    12c8:	f7 07 b2    	and.w     #0x7f, w7
    12ca:	87 80 75    	ior.w     w11, w7, w1
    12cc:	2d 00 37    	bra       0x1328 <signoff>

000012ce <align>:
    12ce:	82 81 71    	ior.w     w3, w2, w3
    12d0:	0a 01 78    	mov.w     w10, w2
    12d2:	61 05 60    	and.w     w0, #0x1, w10
    12d4:	81 80 d1    	asr.w     w1, w1
    12d6:	00 80 d3    	rrc.w     w0, w0

000012d8 <aligniter>:
    12d8:	85 02 e9    	dec.w     w5, w5
    12da:	f9 ff 3b    	bra       NN, 0x12ce <align>

000012dc <aligned>:
    12dc:	06 04 40    	add.w     w0, w6, w8
    12de:	87 84 48    	addc.w    w1, w7, w9
    12e0:	02 00 3b    	bra       NN, 0x12e6 <normalizesum>
    12e2:	60 04 14    	subr.w    w8, #0x0, w8
    12e4:	e0 84 1c    	subbr.w   w9, #0x0, w9

000012e6 <normalizesum>:
    12e6:	09 88 a3    	btst.z    w9, #0x8
    12e8:	07 00 32    	bra       Z, 0x12f8 <checknormal>
    12ea:	8a 81 71    	ior.w     w3, w10, w3
    12ec:	82 81 71    	ior.w     w3, w2, w3
    12ee:	61 01 64    	and.w     w8, #0x1, w2
    12f0:	89 04 d1    	lsr.w     w9, w9
    12f2:	08 84 d3    	rrc.w     w8, w8
    12f4:	8b 05 e8    	inc.w     w11, w11
    12f6:	17 00 37    	bra       0x1326 <round>

000012f8 <checknormal>:
    12f8:	09 78 a3    	btst.z    w9, #0x7
    12fa:	13 00 3a    	bra       NZ, 0x1322 <discardguard>

000012fc <underflow>:
    12fc:	0b 00 e0    	cp0.w     w11
    12fe:	13 00 34    	bra       LE, 0x1326 <round>
    1300:	8b 05 e9    	dec.w     w11, w11
    1302:	08 04 44    	add.w     w8, w8, w8
    1304:	89 84 4c    	addc.w    w9, w9, w9
    1306:	0a 44 74    	ior.b     w8, w10, w8
    1308:	09 78 a3    	btst.z    w9, #0x7
    130a:	0d 00 3a    	bra       NZ, 0x1326 <round>

0000130c <normalizeloop>:
    130c:	0b 00 e0    	cp0.w     w11
    130e:	07 00 34    	bra       LE, 0x131e <normalizeexit>
    1310:	8b 05 e9    	dec.w     w11, w11
    1312:	08 04 44    	add.w     w8, w8, w8
    1314:	89 84 4c    	addc.w    w9, w9, w9
    1316:	01 00 3a    	bra       NZ, 0x131a <normalizetest>
    1318:	0b 00 20    	mov.w     #0x0, w11

0000131a <normalizetest>:
    131a:	09 78 a3    	btst.z    w9, #0x7
    131c:	f7 ff 32    	bra       Z, 0x130c <normalizeloop>

0000131e <normalizeexit>:
    131e:	00 01 eb    	clr.w     w2
    1320:	02 00 37    	bra       0x1326 <round>

00001322 <discardguard>:
    1322:	82 81 71    	ior.w     w3, w2, w3
    1324:	0a 01 78    	mov.w     w10, w2

00001326 <round>:
    1326:	58 00 07    	rcall     0x13d8 <__fpack>

00001328 <signoff>:
    1328:	0c f0 a7    	btsc.w    w12, #0xf
    132a:	01 f0 a0    	bset.w    w1, #0xf
    132c:	4e 00 37    	bra       0x13ca <__fbopExit>

0000132e <aisinfinite>:
    132e:	64 20 e1    	cp.w      w4, #0x4
    1330:	02 00 3a    	bra       NZ, 0x1336 <return8>
    1332:	83 8f 6c    	xor.w     w9, w3, [w15]
    1334:	4e 00 33    	bra       N, 0x13d2 <__fbopReturnNaN>

00001336 <return8>:
    1336:	08 01 be    	mov.d     w8, w2

00001338 <return2>:
    1338:	02 00 be    	mov.d     w2, w0
    133a:	47 00 37    	bra       0x13ca <__fbopExit>

0000133c <___fixunssfsi>:
    133c:	00 01 be    	mov.d     w0, w2
    133e:	72 00 07    	rcall     0x1424 <__funpack>
    1340:	04 70 a7    	btsc.w    w4, #0x7
    1342:	03 f0 a1    	bclr.w    w3, #0xf
    1344:	03 f8 a3    	btst.z    w3, #0xf
    1346:	13 00 3a    	bra       NZ, 0x136e <returnzero>
    1348:	65 09 b1    	sub.w     #0x96, w5
    134a:	10 00 32    	bra       Z, 0x136c <exit>
    134c:	09 00 35    	bra       LT, 0x1360 <shiftright>
    134e:	69 28 e1    	cp.w      w5, #0x9
    1350:	02 00 35    	bra       LT, 0x1356 <shiftleft>
    1352:	01 00 28    	mov.w     #0x8000, w1
    1354:	00 00 05    	retlw.w   #0x0, w0

00001356 <shiftleft>:
    1356:	00 00 40    	add.w     w0, w0, w0
    1358:	81 80 48    	addc.w    w1, w1, w1
    135a:	85 02 e9    	dec.w     w5, w5
    135c:	fc ff 3a    	bra       NZ, 0x1356 <shiftleft>
    135e:	00 00 06    	return    

00001360 <shiftright>:
    1360:	f8 8f 42    	add.w     w5, #0x18, [w15]
    1362:	05 00 35    	bra       LT, 0x136e <returnzero>

00001364 <shiftrightloop>:
    1364:	81 00 d1    	lsr.w     w1, w1
    1366:	00 80 d3    	rrc.w     w0, w0
    1368:	85 02 e8    	inc.w     w5, w5
    136a:	fc ff 3a    	bra       NZ, 0x1364 <shiftrightloop>

0000136c <exit>:
    136c:	00 00 06    	return    

0000136e <returnzero>:
    136e:	80 00 eb    	clr.w     w1
    1370:	00 00 05    	retlw.w   #0x0, w0

00001372 <__fcompare>:
    1372:	88 9f be    	mov.d     w8, [w15++]
    1374:	8a 9f be    	mov.d     w10, [w15++]
    1376:	84 1f 78    	mov.w     w4, [w15++]
    1378:	17 00 07    	rcall     0x13a8 <__funpack2>
    137a:	4f 00 78    	mov.w     [--w15], w0
    137c:	11 00 33    	bra       N, 0x13a0 <exit>
    137e:	f0 ff 2f    	mov.w     #0xffff, w0
    1380:	83 8f 6c    	xor.w     w9, w3, [w15]
    1382:	06 00 3b    	bra       NN, 0x1390 <comparemag>
    1384:	04 05 65    	and.w     w10, w4, w10
    1386:	0a 00 a7    	btsc.w    w10, #0x0
    1388:	08 00 37    	bra       0x139a <returnEqual>
    138a:	09 f0 a6    	btss.w    w9, #0xf
    138c:	10 00 20    	mov.w     #0x1, w0
    138e:	08 00 37    	bra       0x13a0 <exit>

00001390 <comparemag>:
    1390:	82 0f 54    	sub.w     w8, w2, [w15]
    1392:	83 8f 5c    	subb.w    w9, w3, [w15]
    1394:	03 00 39    	bra       NC, 0x139c <adjust>
    1396:	10 00 20    	mov.w     #0x1, w0
    1398:	01 00 3e    	bra       GTU, 0x139c <adjust>

0000139a <returnEqual>:
    139a:	00 00 20    	mov.w     #0x0, w0

0000139c <adjust>:
    139c:	09 f0 a7    	btsc.w    w9, #0xf
    139e:	00 00 ea    	neg.w     w0, w0

000013a0 <exit>:
    13a0:	4f 05 be    	mov.d     [--w15], w10
    13a2:	4f 04 be    	mov.d     [--w15], w8
    13a4:	00 00 e0    	cp0.w     w0
    13a6:	00 00 06    	return    

000013a8 <__funpack2>:
    13a8:	00 04 be    	mov.d     w0, w8
    13aa:	3c 00 07    	rcall     0x1424 <__funpack>
    13ac:	00 03 be    	mov.d     w0, w6
    13ae:	04 05 be    	mov.d     w4, w10
    13b0:	02 00 be    	mov.d     w2, w0
    13b2:	38 00 07    	rcall     0x1424 <__funpack>
    13b4:	84 4f 75    	ior.b     w10, w4, [w15]
    13b6:	00 00 06    	return    

000013b8 <__fPropagateNaN>:
    13b8:	02 00 be    	mov.d     w2, w0
    13ba:	64 50 e1    	cp.w      w10, #0x4
    13bc:	05 00 36    	bra       LEU, 0x13c8 <return0>
    13be:	64 20 e1    	cp.w      w4, #0x4
    13c0:	02 00 36    	bra       LEU, 0x13c6 <return8>
    13c2:	09 68 a3    	btst.z    w9, #0x6
    13c4:	01 00 3a    	bra       NZ, 0x13c8 <return0>

000013c6 <return8>:
    13c6:	08 00 be    	mov.d     w8, w0

000013c8 <return0>:
    13c8:	01 60 a0    	bset.w    w1, #0x6

000013ca <__fbopExit>:
    13ca:	4f 06 78    	mov.w     [--w15], w12
    13cc:	4f 05 be    	mov.d     [--w15], w10
    13ce:	4f 04 be    	mov.d     [--w15], w8
    13d0:	00 00 06    	return    

000013d2 <__fbopReturnNaN>:
    13d2:	f0 ff 2f    	mov.w     #0xffff, w0
    13d4:	f1 ff 27    	mov.w     #0x7fff, w1
    13d6:	f9 ff 37    	bra       0x13ca <__fbopExit>

000013d8 <__fpack>:
    13d8:	81 00 20    	mov.w     #0x8, w1
    13da:	61 80 55    	sub.w     w11, #0x1, w0
    13dc:	0b 00 3d    	bra       GE, 0x13f4 <notsubnormal>
    13de:	0b 00 20    	mov.w     #0x0, w11
    13e0:	61 fe 2f    	mov.w     #0xffe6, w1
    13e2:	01 00 e1    	cp.w      w0, w1
    13e4:	1d 00 34    	bra       LE, 0x1420 <zerosig>

000013e6 <subnormal>:
    13e6:	82 81 71    	ior.w     w3, w2, w3
    13e8:	61 01 64    	and.w     w8, #0x1, w2
    13ea:	89 04 d1    	lsr.w     w9, w9
    13ec:	08 84 d3    	rrc.w     w8, w8
    13ee:	00 00 e8    	inc.w     w0, w0
    13f0:	fa ff 3a    	bra       NZ, 0x13e6 <subnormal>
    13f2:	71 00 20    	mov.w     #0x7, w1

000013f4 <notsubnormal>:
    13f4:	61 00 64    	and.w     w8, #0x1, w0
    13f6:	03 00 70    	ior.w     w0, w3, w0
    13f8:	02 00 60    	and.w     w0, w2, w0
    13fa:	09 00 32    	bra       Z, 0x140e <packupandgo>
    13fc:	61 04 44    	add.w     w8, #0x1, w8
    13fe:	e0 84 4c    	addc.w    w9, #0x0, w9
    1400:	09 88 a5    	btst.z    w9, w1
    1402:	05 00 32    	bra       Z, 0x140e <packupandgo>
    1404:	8b 05 e8    	inc.w     w11, w11
    1406:	68 08 e1    	cp.w      w1, #0x8
    1408:	02 00 3a    	bra       NZ, 0x140e <packupandgo>
    140a:	89 04 d1    	lsr.w     w9, w9
    140c:	08 84 d3    	rrc.w     w8, w8

0000140e <packupandgo>:
    140e:	f2 0f 20    	mov.w     #0xff, w2
    1410:	02 58 e1    	cp.w      w11, w2
    1412:	05 00 3d    	bra       GE, 0x141e <overflow>
    1414:	c7 5d dd    	sl.w      w11, #0x7, w11
    1416:	f9 07 b2    	and.w     #0x7f, w9
    1418:	89 80 75    	ior.w     w11, w9, w1
    141a:	08 00 78    	mov.w     w8, w0
    141c:	00 00 06    	return    

0000141e <overflow>:
    141e:	0b f8 27    	mov.w     #0x7f80, w11

00001420 <zerosig>:
    1420:	8b 00 78    	mov.w     w11, w1
    1422:	00 00 05    	retlw.w   #0x0, w0

00001424 <__funpack>:
    1424:	c7 0a de    	lsr.w     w1, #0x7, w5
    1426:	f1 07 b2    	and.w     #0x7f, w1
    1428:	f5 0f b2    	and.w     #0xff, w5
    142a:	08 00 32    	bra       Z, 0x143c <zeroorsub>
    142c:	e1 cf 42    	add.b     w5, #0x1, [w15]
    142e:	02 00 32    	bra       Z, 0x1434 <nanorinf>

00001430 <finitereturn>:
    1430:	01 70 a0    	bset.w    w1, #0x7
    1432:	24 00 05    	retlw.w   #0x2, w4

00001434 <nanorinf>:
    1434:	81 0f 70    	ior.w     w0, w1, [w15]
    1436:	01 00 32    	bra       Z, 0x143a <infinite>
    1438:	04 08 05    	retlw.w   #0x80, w4

0000143a <infinite>:
    143a:	44 00 05    	retlw.w   #0x4, w4

0000143c <zeroorsub>:
    143c:	81 0f 70    	ior.w     w0, w1, [w15]
    143e:	02 00 3a    	bra       NZ, 0x1444 <subnormal>
    1440:	14 00 05    	retlw.w   #0x1, w4

00001442 <normalize>:
    1442:	85 02 e9    	dec.w     w5, w5

00001444 <subnormal>:
    1444:	00 00 40    	add.w     w0, w0, w0
    1446:	81 c0 48    	addc.b    w1, w1, w1
    1448:	fc ff 3b    	bra       NN, 0x1442 <normalize>
    144a:	01 70 a0    	bset.w    w1, #0x7
    144c:	24 00 05    	retlw.w   #0x2, w4

0000144e <___PplusBdi>:
    144e:	88 1f 78    	mov.w     w8, [w15++]
    1450:	00 04 78    	mov.w     w0, w8
    1452:	50 01 be    	mov.d     [++w0], w2
    1454:	40 00 be    	mov.d     [--w0], w0
    1456:	04 00 40    	add.w     w0, w4, w0
    1458:	85 80 48    	addc.w    w1, w5, w1
    145a:	06 01 49    	addc.w    w2, w6, w2
    145c:	87 81 49    	addc.w    w3, w7, w3
    145e:	00 9c be    	mov.d     w0, [w8++]
    1460:	02 94 be    	mov.d     w2, [w8--]
    1462:	04 00 e1    	cp.w      w0, w4
    1464:	05 88 e1    	cpb.w     w1, w5
    1466:	06 90 e1    	cpb.w     w2, w6
    1468:	07 98 e1    	cpb.w     w3, w7
    146a:	02 00 31    	bra       C, 0x1470 <.L4>
    146c:	68 00 44    	add.w     w8, #0x8, w0
    146e:	10 08 e8    	inc.w     [w0], [w0]

00001470 <.L4>:
    1470:	4f 04 78    	mov.w     [--w15], w8
    1472:	00 00 06    	return    

00001474 <___udivmoddi3>:
    1474:	f4 87 47    	add.w     w15, #0x14, w15
    1476:	88 9f be    	mov.d     w8, [w15++]
    1478:	8a 9f be    	mov.d     w10, [w15++]
    147a:	8c 9f be    	mov.d     w12, [w15++]
    147c:	8e 1f 78    	mov.w     w14, [w15++]
    147e:	02 05 be    	mov.d     w2, w10
    1480:	00 04 be    	mov.d     w0, w8
    1482:	d4 b7 9f    	mov.w     w4, [w15-22]
    1484:	e5 b7 9f    	mov.w     w5, [w15-20]
    1486:	f6 b7 9f    	mov.w     w6, [w15-18]
    1488:	87 bf 9f    	mov.w     w7, [w15-16]
    148a:	00 00 eb    	clr.w     w0
    148c:	c0 b7 9f    	mov.w     w0, [w15-24]
    148e:	b0 b7 9f    	mov.w     w0, [w15-26]
    1490:	a0 b7 9f    	mov.w     w0, [w15-28]
    1492:	90 b7 9f    	mov.w     w0, [w15-30]
    1494:	80 b7 9f    	mov.w     w0, [w15-32]
    1496:	0d 04 20    	mov.w     #0x40, w13

00001498 <.L6>:
    1498:	bf b0 97    	mov.w     [w15-26], w1
    149a:	4f b0 97    	mov.w     [w15-24], w0
    149c:	00 01 40    	add.w     w0, w0, w2
    149e:	00 00 e0    	cp0.w     w0
    14a0:	0f 00 3d    	bra       GE, 0x14c0 <.L7>
    14a2:	4f 08 de    	lsr.w     w1, #0xf, w0
    14a4:	00 00 71    	ior.w     w2, w0, w0
    14a6:	c0 b7 9f    	mov.w     w0, [w15-24]
    14a8:	9e 00 07    	rcall     0x15e6 <.LPA5>
    14aa:	01 00 3d    	bra       GE, 0x14ae <.L10>
    14ac:	12 00 20    	mov.w     #0x1, w2

000014ae <.L10>:
    14ae:	a1 00 07    	rcall     0x15f2 <.LPA2>
    14b0:	01 00 3d    	bra       GE, 0x14b4 <.L11>
    14b2:	12 00 20    	mov.w     #0x1, w2

000014b4 <.L11>:
    14b4:	a6 00 07    	rcall     0x1602 <.LPA0>
    14b6:	b1 00 07    	rcall     0x161a <.LPA6>
    14b8:	b6 00 07    	rcall     0x1626 <.LPA7>
    14ba:	0f 00 40    	add.w     w0, w15, w0
    14bc:	c8 ff 07    	rcall     0x144e <___PplusBdi>
    14be:	22 00 37    	bra       0x1504 <.L14>

000014c0 <.L7>:
    14c0:	4f 08 de    	lsr.w     w1, #0xf, w0
    14c2:	00 06 71    	ior.w     w2, w0, w12
    14c4:	cc b7 9f    	mov.w     w12, [w15-24]
    14c6:	8f 00 07    	rcall     0x15e6 <.LPA5>
    14c8:	01 00 3d    	bra       GE, 0x14cc <.L16>
    14ca:	12 00 20    	mov.w     #0x1, w2

000014cc <.L16>:
    14cc:	92 00 07    	rcall     0x15f2 <.LPA2>
    14ce:	01 00 3d    	bra       GE, 0x14d2 <.L17>
    14d0:	12 00 20    	mov.w     #0x1, w2

000014d2 <.L17>:
    14d2:	97 00 07    	rcall     0x1602 <.LPA0>
    14d4:	a2 00 07    	rcall     0x161a <.LPA6>
    14d6:	0f b2 97    	mov.w     [w15-32], w4
    14d8:	9f b2 97    	mov.w     [w15-30], w5
    14da:	2f b3 97    	mov.w     [w15-28], w6
    14dc:	bf b3 97    	mov.w     [w15-26], w7
    14de:	a9 00 07    	rcall     0x1632 <.LPA9>
    14e0:	00 00 52    	sub.w     w4, w0, w0
    14e2:	81 80 5a    	subb.w    w5, w1, w1
    14e4:	02 01 5b    	subb.w    w6, w2, w2
    14e6:	83 81 5b    	subb.w    w7, w3, w3
    14e8:	80 b7 9f    	mov.w     w0, [w15-32]
    14ea:	91 b7 9f    	mov.w     w1, [w15-30]
    14ec:	a2 b7 9f    	mov.w     w2, [w15-28]
    14ee:	b3 b7 9f    	mov.w     w3, [w15-26]
    14f0:	00 07 eb    	clr.w     w14
    14f2:	9f 00 07    	rcall     0x1632 <.LPA9>
    14f4:	00 20 e1    	cp.w      w4, w0
    14f6:	01 a8 e1    	cpb.w     w5, w1
    14f8:	02 b0 e1    	cpb.w     w6, w2
    14fa:	03 b8 e1    	cpb.w     w7, w3
    14fc:	01 00 31    	bra       C, 0x1500 <.L20>
    14fe:	1e 00 20    	mov.w     #0x1, w14

00001500 <.L20>:
    1500:	0e 00 56    	sub.w     w12, w14, w0
    1502:	c0 b7 9f    	mov.w     w0, [w15-24]

00001504 <.L14>:
    1504:	4f b2 97    	mov.w     [w15-24], w4
    1506:	04 00 e0    	cp0.w     w4
    1508:	07 00 35    	bra       LT, 0x1518 <.L21>
    150a:	10 00 20    	mov.w     #0x1, w0
    150c:	01 00 20    	mov.w     #0x0, w1
    150e:	60 11 b8    	mul.uu    w2, #0x0, w2
    1510:	08 04 70    	ior.w     w0, w8, w8
    1512:	89 84 70    	ior.w     w1, w9, w9
    1514:	0a 05 71    	ior.w     w2, w10, w10
    1516:	8b 85 71    	ior.w     w3, w11, w11

00001518 <.L21>:
    1518:	8d 06 e9    	dec.w     w13, w13
    151a:	be ff 3a    	bra       NZ, 0x1498 <.L6>
    151c:	04 00 e0    	cp0.w     w4
    151e:	03 00 3d    	bra       GE, 0x1526
    1520:	82 00 07    	rcall     0x1626 <.LPA7>
    1522:	0f 00 40    	add.w     w0, w15, w0
    1524:	94 ff 07    	rcall     0x144e <___PplusBdi>

00001526 <.L24>:
    1526:	4f a8 97    	mov.w     [w15-40], w0
    1528:	00 00 e0    	cp0.w     w0
    152a:	04 00 3a    	bra       NZ, 0x1534 <.L26>
    152c:	0f b4 97    	mov.w     [w15-32], w8
    152e:	9f b4 97    	mov.w     [w15-30], w9
    1530:	2f b5 97    	mov.w     [w15-28], w10
    1532:	bf b5 97    	mov.w     [w15-26], w11

00001534 <.L26>:
    1534:	94 00 07    	rcall     0x165e <.LPA11>
    1536:	4f 07 78    	mov.w     [--w15], w14
    1538:	4f 06 be    	mov.d     [--w15], w12
    153a:	4f 05 be    	mov.d     [--w15], w10
    153c:	4f 04 be    	mov.d     [--w15], w8
    153e:	4f 01 b1    	sub.w     #0x14, w15
    1540:	00 00 06    	return    

00001542 <___udivdi3>:
    1542:	88 1f 78    	mov.w     w8, [w15++]
    1544:	18 00 20    	mov.w     #0x1, w8
    1546:	88 1f 78    	mov.w     w8, [w15++]
    1548:	95 ff 07    	rcall     0x1474 <___udivmoddi3>
    154a:	8f 87 e9    	dec2.w    w15, w15
    154c:	4f 04 78    	mov.w     [--w15], w8
    154e:	00 00 06    	return    

00001550 <___umoddi3>:
    1550:	80 1f eb    	clr.w     [w15++]
    1552:	90 ff 07    	rcall     0x1474 <___udivmoddi3>
    1554:	8f 87 e9    	dec2.w    w15, w15
    1556:	00 00 06    	return    

00001558 <___divdi3>:
    1558:	88 9f be    	mov.d     w8, [w15++]
    155a:	8a 9f be    	mov.d     w10, [w15++]
    155c:	8c 1f 78    	mov.w     w12, [w15++]
    155e:	6e 00 07    	rcall     0x163c <.LPA3>
    1560:	07 00 3d    	bra       GE, 0x1570 <.L36>
    1562:	73 00 07    	rcall     0x164a <.LPA1>
    1564:	e0 0f 5b    	subb.w    w6, #0x0, [w15]
    1566:	e0 8f 5b    	subb.w    w7, #0x0, [w15]
    1568:	07 00 3d    	bra       GE, 0x1578 <.L40>
    156a:	32 00 07    	rcall     0x15d0 <.LPA10>
    156c:	00 06 eb    	clr.w     w12
    156e:	04 00 37    	bra       0x1578 <.L40>

00001570 <.L36>:
    1570:	34 00 07    	rcall     0x15da <.LPA8>
    1572:	02 00 3d    	bra       GE, 0x1578 <.L40>
    1574:	2a 00 07    	rcall     0x15ca <.LPA4>
    1576:	1c 00 20    	mov.w     #0x1, w12

00001578 <.L40>:
    1578:	72 00 07    	rcall     0x165e <.LPA11>
    157a:	e3 ff 07    	rcall     0x1542 <___udivdi3>
    157c:	02 03 be    	mov.d     w2, w6
    157e:	00 02 be    	mov.d     w0, w4
    1580:	0c 00 e0    	cp0.w     w12
    1582:	01 00 32    	bra       Z, 0x1586 <.L43>
    1584:	22 00 07    	rcall     0x15ca <.LPA4>

00001586 <.L43>:
    1586:	04 00 be    	mov.d     w4, w0
    1588:	06 01 be    	mov.d     w6, w2
    158a:	4f 06 78    	mov.w     [--w15], w12
    158c:	4f 05 be    	mov.d     [--w15], w10
    158e:	4f 04 be    	mov.d     [--w15], w8
    1590:	00 00 06    	return    

00001592 <___moddi3>:
    1592:	88 9f be    	mov.d     w8, [w15++]
    1594:	8a 9f be    	mov.d     w10, [w15++]
    1596:	8c 1f 78    	mov.w     w12, [w15++]
    1598:	51 00 07    	rcall     0x163c <.LPA3>
    159a:	05 00 3d    	bra       GE, 0x15a6 <.L47>
    159c:	56 00 07    	rcall     0x164a <.LPA1>
    159e:	e0 0f 5b    	subb.w    w6, #0x0, [w15]
    15a0:	e0 8f 5b    	subb.w    w7, #0x0, [w15]
    15a2:	06 00 3d    	bra       GE, 0x15b0 <.L51>
    15a4:	04 00 37    	bra       0x15ae <.L57>

000015a6 <.L47>:
    15a6:	19 00 07    	rcall     0x15da <.LPA8>
    15a8:	03 00 3d    	bra       GE, 0x15b0 <.L51>
    15aa:	60 00 b8    	mul.uu    w0, #0x0, w0
    15ac:	60 11 b8    	mul.uu    w2, #0x0, w2

000015ae <.L57>:
    15ae:	10 00 07    	rcall     0x15d0 <.LPA10>

000015b0 <.L51>:
    15b0:	56 00 07    	rcall     0x165e <.LPA11>
    15b2:	ce ff 07    	rcall     0x1550 <___umoddi3>
    15b4:	02 03 be    	mov.d     w2, w6
    15b6:	00 02 be    	mov.d     w0, w4
    15b8:	0c 00 e0    	cp0.w     w12
    15ba:	01 00 32    	bra       Z, 0x15be <.L54>
    15bc:	06 00 07    	rcall     0x15ca <.LPA4>

000015be <.L54>:
    15be:	04 00 be    	mov.d     w4, w0
    15c0:	06 01 be    	mov.d     w6, w2
    15c2:	4f 06 78    	mov.w     [--w15], w12
    15c4:	4f 05 be    	mov.d     [--w15], w10
    15c6:	4f 04 be    	mov.d     [--w15], w8
    15c8:	00 00 06    	return    

000015ca <.LPA4>:
    15ca:	60 00 b8    	mul.uu    w0, #0x0, w0
    15cc:	60 11 b8    	mul.uu    w2, #0x0, w2
    15ce:	00 00 37    	bra       0x15d0 <.LPA10>

000015d0 <.LPA10>:
    15d0:	04 02 50    	sub.w     w0, w4, w4
    15d2:	85 82 58    	subb.w    w1, w5, w5
    15d4:	06 03 59    	subb.w    w2, w6, w6
    15d6:	87 83 59    	subb.w    w3, w7, w7
    15d8:	00 00 06    	return    

000015da <.LPA8>:
    15da:	00 06 eb    	clr.w     w12
    15dc:	e0 0f 52    	sub.w     w4, #0x0, [w15]
    15de:	e0 8f 5a    	subb.w    w5, #0x0, [w15]
    15e0:	e0 0f 5b    	subb.w    w6, #0x0, [w15]
    15e2:	e0 8f 5b    	subb.w    w7, #0x0, [w15]
    15e4:	00 00 06    	return    

000015e6 <.LPA5>:
    15e6:	01 80 40    	add.w     w1, w1, w0
    15e8:	90 b7 9f    	mov.w     w0, [w15-30]
    15ea:	00 01 eb    	clr.w     w2
    15ec:	8f b0 97    	mov.w     [w15-32], w1
    15ee:	01 00 e0    	cp0.w     w1
    15f0:	00 00 06    	return    

000015f2 <.LPA2>:
    15f2:	02 00 70    	ior.w     w0, w2, w0
    15f4:	90 b7 9f    	mov.w     w0, [w15-30]
    15f6:	01 80 40    	add.w     w1, w1, w0
    15f8:	80 b7 9f    	mov.w     w0, [w15-32]
    15fa:	00 01 eb    	clr.w     w2
    15fc:	ff a8 97    	mov.w     [w15-34], w1
    15fe:	01 00 e0    	cp0.w     w1
    1600:	00 00 06    	return    

00001602 <.LPA0>:
    1602:	02 00 70    	ior.w     w0, w2, w0
    1604:	80 b7 9f    	mov.w     w0, [w15-32]
    1606:	01 80 40    	add.w     w1, w1, w0
    1608:	6f aa 97    	mov.w     [w15-36], w4
    160a:	cf 20 de    	lsr.w     w4, #0xf, w1
    160c:	01 00 70    	ior.w     w0, w1, w0
    160e:	f0 af 9f    	mov.w     w0, [w15-34]
    1610:	04 02 42    	add.w     w4, w4, w4
    1612:	25 00 07    	rcall     0x165e <.LPA11>
    1614:	4f 18 de    	lsr.w     w3, #0xf, w0
    1616:	00 02 72    	ior.w     w4, w0, w4
    1618:	00 00 06    	return    

0000161a <.LPA6>:
    161a:	e4 af 9f    	mov.w     w4, [w15-36]
    161c:	08 04 44    	add.w     w8, w8, w8
    161e:	89 84 4c    	addc.w    w9, w9, w9
    1620:	0a 05 4d    	addc.w    w10, w10, w10
    1622:	8b 85 4d    	addc.w    w11, w11, w11
    1624:	00 00 06    	return    

00001626 <.LPA7>:
    1626:	3f b2 97    	mov.w     [w15-26], w4
    1628:	cf b2 97    	mov.w     [w15-24], w5
    162a:	5f b3 97    	mov.w     [w15-22], w6
    162c:	ef b3 97    	mov.w     [w15-20], w7
    162e:	00 fe 2f    	mov.w     #0xffe0, w0
    1630:	00 00 06    	return    

00001632 <.LPA9>:
    1632:	3f b0 97    	mov.w     [w15-26], w0
    1634:	cf b0 97    	mov.w     [w15-24], w1
    1636:	5f b1 97    	mov.w     [w15-22], w2
    1638:	ef b1 97    	mov.w     [w15-20], w3
    163a:	00 00 06    	return    

0000163c <.LPA3>:
    163c:	02 05 be    	mov.d     w2, w10
    163e:	00 04 be    	mov.d     w0, w8
    1640:	e0 0f 50    	sub.w     w0, #0x0, [w15]
    1642:	e0 8f 58    	subb.w    w1, #0x0, [w15]
    1644:	e0 0f 59    	subb.w    w2, #0x0, [w15]
    1646:	e0 8f 59    	subb.w    w3, #0x0, [w15]
    1648:	00 00 06    	return    

0000164a <.LPA1>:
    164a:	60 00 b8    	mul.uu    w0, #0x0, w0
    164c:	60 11 b8    	mul.uu    w2, #0x0, w2
    164e:	08 04 50    	sub.w     w0, w8, w8
    1650:	89 84 58    	subb.w    w1, w9, w9
    1652:	0a 05 59    	subb.w    w2, w10, w10
    1654:	8b 85 59    	subb.w    w3, w11, w11
    1656:	1c 00 20    	mov.w     #0x1, w12
    1658:	e0 0f 52    	sub.w     w4, #0x0, [w15]
    165a:	e0 8f 5a    	subb.w    w5, #0x0, [w15]
    165c:	00 00 06    	return    

0000165e <.LPA11>:
    165e:	08 00 be    	mov.d     w8, w0
    1660:	0a 01 be    	mov.d     w10, w2
    1662:	00 00 06    	return    

00001664 <_fputs>:
    1664:	88 9f be    	mov.d     w8, [w15++]
    1666:	00 04 be    	mov.d     w0, w8
    1668:	06 00 37    	bra       0x1676 <.L2>

0000166a <.L3>:
    166a:	08 04 e8    	inc.w     w8, w8
    166c:	00 00 fb    	se        w0, w0
    166e:	89 00 78    	mov.w     w9, w1
    1670:	19 00 07    	rcall     0x16a4 <_fputc>
    1672:	e1 0f 40    	add.w     w0, #0x1, [w15]
    1674:	04 00 32    	bra       Z, 0x167e <.L5>

00001676 <.L2>:
    1676:	18 40 78    	mov.b     [w8], w0
    1678:	00 04 e0    	cp0.b     w0
    167a:	f7 ff 3a    	bra       NZ, 0x166a <.L3>
    167c:	00 00 eb    	clr.w     w0

0000167e <.L5>:
    167e:	4f 04 be    	mov.d     [--w15], w8
    1680:	00 00 06    	return    

00001682 <_puts>:
    1682:	88 1f 78    	mov.w     w8, [w15++]
    1684:	e1 ba 20    	mov.w     #0xbae, w1
    1686:	ee ff 07    	rcall     0x1664 <_fputs>
    1688:	00 04 78    	mov.w     w0, w8
    168a:	e1 ba 20    	mov.w     #0xbae, w1
    168c:	a0 00 20    	mov.w     #0xa, w0
    168e:	0a 00 07    	rcall     0x16a4 <_fputc>
    1690:	08 00 78    	mov.w     w8, w0
    1692:	4f 04 78    	mov.w     [--w15], w8
    1694:	00 00 06    	return    

00001696 <__printf_0>:
    1696:	00 00 fa    	lnk       #0x0
    1698:	cf b8 97    	mov.w     [w15-8], w1
    169a:	68 81 57    	sub.w     w15, #0x8, w2
    169c:	e0 ba 20    	mov.w     #0xbae, w0
    169e:	49 00 07    	rcall     0x1732 <__vfprintf_0>
    16a0:	00 80 fa    	ulnk      
    16a2:	00 00 06    	return    

000016a4 <_fputc>:
    16a4:	88 9f be    	mov.d     w8, [w15++]
    16a6:	00 01 78    	mov.w     w0, w2
    16a8:	01 04 78    	mov.w     w1, w8
    16aa:	b1 00 90    	mov.w     [w1+6], w1
    16ac:	01 18 a3    	btst.z    w1, #0x1
    16ae:	3d 00 32    	bra       Z, 0x172a <.L2>
    16b0:	01 98 a3    	btst.z    w1, #0x9
    16b2:	03 00 3a    	bra       NZ, 0x16ba <.L4>
    16b4:	18 00 90    	mov.w     [w8+2], w0
    16b6:	00 00 e0    	cp0.w     w0
    16b8:	38 00 3a    	bra       NZ, 0x172a <.L2>

000016ba <.L4>:
    16ba:	01 90 a0    	bset.w    w1, #0x9
    16bc:	31 04 98    	mov.w     w1, [w8+6]
    16be:	82 04 78    	mov.w     w2, w9
    16c0:	f9 0f b2    	and.w     #0xff, w9
    16c2:	18 00 90    	mov.w     [w8+2], w0
    16c4:	00 00 e0    	cp0.w     w0
    16c6:	02 00 3a    	bra       NZ, 0x16cc <.L6>
    16c8:	28 00 90    	mov.w     [w8+4], w0
    16ca:	00 0c 78    	mov.w     w0, [w8]

000016cc <.L6>:
    16cc:	ea 8f 54    	sub.w     w9, #0xa, [w15]
    16ce:	06 00 3a    	bra       NZ, 0x16dc <.L8>
    16d0:	38 00 90    	mov.w     [w8+6], w0
    16d2:	00 78 a3    	btst.z    w0, #0x7
    16d4:	03 00 3a    	bra       NZ, 0x16dc <.L8>
    16d6:	88 00 78    	mov.w     w8, w1
    16d8:	d0 00 20    	mov.w     #0xd, w0
    16da:	e4 ff 07    	rcall     0x16a4 <_fputc>

000016dc <.L8>:
    16dc:	98 00 90    	mov.w     [w8+2], w1
    16de:	58 00 90    	mov.w     [w8+10], w0
    16e0:	80 8f 50    	sub.w     w1, w0, [w15]
    16e2:	0b 00 32    	bra       Z, 0x16fa <.L11>
    16e4:	01 00 e8    	inc.w     w1, w0
    16e6:	10 04 98    	mov.w     w0, [w8+2]
    16e8:	18 00 78    	mov.w     [w8], w0
    16ea:	09 58 78    	mov.b     w9, [w0++]
    16ec:	00 0c 78    	mov.w     w0, [w8]
    16ee:	11 c0 b3    	mov.b     #0x1, w1
    16f0:	20 be 20    	mov.w     #0xbe2, w0
    16f2:	01 48 78    	mov.b     w1, [w0]
    16f4:	ea 8f 54    	sub.w     w9, #0xa, [w15]
    16f6:	06 00 32    	bra       Z, 0x1704 <.L13>
    16f8:	19 00 37    	bra       0x172c <.L14>

000016fa <.L11>:
    16fa:	88 00 78    	mov.w     w8, w1
    16fc:	09 40 78    	mov.b     w9, w0
    16fe:	42 02 07    	rcall     0x1b84 <__flsbuf>
    1700:	80 04 78    	mov.w     w0, w9
    1702:	14 00 37    	bra       0x172c <.L14>

00001704 <.L13>:
    1704:	38 00 90    	mov.w     [w8+6], w0
    1706:	00 88 a3    	btst.z    w0, #0x8
    1708:	11 00 32    	bra       Z, 0x172c <.L14>
    170a:	18 01 90    	mov.w     [w8+2], w2
    170c:	a8 00 90    	mov.w     [w8+4], w1
    170e:	48 00 90    	mov.w     [w8+8], w0
    1710:	36 04 07    	rcall     0x1f7e <_write>
    1712:	98 00 90    	mov.w     [w8+2], w1
    1714:	81 0f 50    	sub.w     w0, w1, [w15]
    1716:	04 00 32    	bra       Z, 0x1720 <.L19>
    1718:	38 00 90    	mov.w     [w8+6], w0
    171a:	00 03 b3    	ior.w     #0x30, w0
    171c:	30 04 98    	mov.w     w0, [w8+6]
    171e:	80 84 eb    	setm.w    w9

00001720 <.L19>:
    1720:	00 00 eb    	clr.w     w0
    1722:	10 04 98    	mov.w     w0, [w8+2]
    1724:	28 00 90    	mov.w     [w8+4], w0
    1726:	00 0c 78    	mov.w     w0, [w8]
    1728:	01 00 37    	bra       0x172c <.L14>

0000172a <.L2>:
    172a:	80 84 eb    	setm.w    w9

0000172c <.L14>:
    172c:	09 00 78    	mov.w     w9, w0
    172e:	4f 04 be    	mov.d     [--w15], w8
    1730:	00 00 06    	return    

00001732 <__vfprintf_0>:
    1732:	fa 87 47    	add.w     w15, #0x1a, w15
    1734:	88 9f be    	mov.d     w8, [w15++]
    1736:	8a 9f be    	mov.d     w10, [w15++]
    1738:	8c 9f be    	mov.d     w12, [w15++]
    173a:	8e 1f 78    	mov.w     w14, [w15++]
    173c:	f0 b7 9f    	mov.w     w0, [w15-18]
    173e:	01 07 78    	mov.w     w1, w14
    1740:	82 bf 9f    	mov.w     w2, [w15-16]
    1742:	00 00 eb    	clr.w     w0
    1744:	c0 b7 9f    	mov.w     w0, [w15-24]
    1746:	13 02 37    	bra       0x1b6e <.L185>

00001748 <.L3>:
    1748:	80 46 eb    	clr.b     w13
    174a:	50 c2 b3    	mov.b     #0x25, w0
    174c:	80 cf 50    	sub.b     w1, w0, [w15]
    174e:	09 00 32    	bra       Z, 0x1762 <.L179>
    1750:	01 00 fb    	se        w1, w0
    1752:	ff b0 97    	mov.w     [w15-18], w1
    1754:	a7 ff 07    	rcall     0x16a4 <_fputc>
    1756:	e1 0f 40    	add.w     w0, #0x1, [w15]
    1758:	0a 02 32    	bra       Z, 0x1b6e <.L185>
    175a:	cf b0 97    	mov.w     [w15-24], w1
    175c:	81 00 e8    	inc.w     w1, w1
    175e:	c1 b7 9f    	mov.w     w1, [w15-24]
    1760:	06 02 37    	bra       0x1b6e <.L185>

00001762 <.L179>:
    1762:	9e 40 78    	mov.b     [w14], w1
    1764:	d0 c2 b3    	mov.b     #0x2d, w0
    1766:	80 cf 50    	sub.b     w1, w0, [w15]
    1768:	0c 00 32    	bra       Z, 0x1782 <.L11>
    176a:	07 00 3c    	bra       GT, 0x177a <.L13>
    176c:	6d 40 50    	sub.b     w0, #0xd, w0
    176e:	80 cf 50    	sub.b     w1, w0, [w15]
    1770:	0a 00 32    	bra       Z, 0x1786 <.L9>
    1772:	6b 40 40    	add.b     w0, #0xb, w0
    1774:	80 cf 50    	sub.b     w1, w0, [w15]
    1776:	0e 00 3a    	bra       NZ, 0x1794 <.L8>
    1778:	08 00 37    	bra       0x178a <.L10>

0000177a <.L13>:
    177a:	00 c3 b3    	mov.b     #0x30, w0
    177c:	80 cf 50    	sub.b     w1, w0, [w15]
    177e:	0a 00 3a    	bra       NZ, 0x1794 <.L8>
    1780:	06 00 37    	bra       0x178e <.L12>

00001782 <.L11>:
    1782:	0d 34 a0    	bset.b    w13, #0x3
    1784:	05 00 37    	bra       0x1790 <.L182>

00001786 <.L9>:
    1786:	0d 04 a0    	bset.b    w13, #0x0
    1788:	03 00 37    	bra       0x1790 <.L182>

0000178a <.L10>:
    178a:	0d 14 a0    	bset.b    w13, #0x1
    178c:	01 00 37    	bra       0x1790 <.L182>

0000178e <.L12>:
    178e:	0d 24 a0    	bset.b    w13, #0x2

00001790 <.L182>:
    1790:	0e 07 e8    	inc.w     w14, w14
    1792:	e7 ff 37    	bra       0x1762 <.L179>

00001794 <.L8>:
    1794:	0d 18 a3    	btst.z    w13, #0x1
    1796:	01 00 32    	bra       Z, 0x179a <.L14>
    1798:	0d 04 a1    	bclr.b    w13, #0x0

0000179a <.L14>:
    179a:	0d 38 a3    	btst.z    w13, #0x3
    179c:	01 00 32    	bra       Z, 0x17a0 <.L16>
    179e:	0d 24 a1    	bclr.b    w13, #0x2

000017a0 <.L16>:
    17a0:	01 00 fb    	se        w1, w0
    17a2:	02 fd 2f    	mov.w     #0xffd0, w2
    17a4:	02 00 40    	add.w     w0, w2, w0
    17a6:	e9 0f 50    	sub.w     w0, #0x9, [w15]
    17a8:	0e 00 3e    	bra       GTU, 0x17c6 <.L18>
    17aa:	00 02 eb    	clr.w     w4
    17ac:	d4 b7 9f    	mov.w     w4, [w15-22]
    17ae:	82 01 78    	mov.w     w2, w3

000017b0 <.L20>:
    17b0:	5f b3 97    	mov.w     [w15-22], w6
    17b2:	6a 30 b9    	mul.su    w6, #0xa, w0
    17b4:	1e 01 fb    	se        [w14], w2
    17b6:	00 01 41    	add.w     w2, w0, w2
    17b8:	03 01 41    	add.w     w2, w3, w2
    17ba:	d2 b7 9f    	mov.w     w2, [w15-22]
    17bc:	5e 00 fb    	se        [++w14], w0
    17be:	03 00 40    	add.w     w0, w3, w0
    17c0:	e9 0f 50    	sub.w     w0, #0x9, [w15]
    17c2:	0b 00 3e    	bra       GTU, 0x17da <.L21>
    17c4:	f5 ff 37    	bra       0x17b0 <.L20>

000017c6 <.L18>:
    17c6:	00 06 eb    	clr.w     w12
    17c8:	dc b7 9f    	mov.w     w12, [w15-22]
    17ca:	a0 c2 b3    	mov.b     #0x2a, w0
    17cc:	80 cf 50    	sub.b     w1, w0, [w15]
    17ce:	05 00 3a    	bra       NZ, 0x17da <.L21>
    17d0:	0f b8 97    	mov.w     [w15-16], w0
    17d2:	c0 00 78    	mov.w     [--w0], w1
    17d4:	80 bf 9f    	mov.w     w0, [w15-16]
    17d6:	d1 b7 9f    	mov.w     w1, [w15-22]
    17d8:	0e 07 e8    	inc.w     w14, w14

000017da <.L21>:
    17da:	00 01 eb    	clr.w     w2
    17dc:	92 b7 9f    	mov.w     w2, [w15-30]
    17de:	e0 c2 b3    	mov.b     #0x2e, w0
    17e0:	9e 4f 10    	subr.b    w0, [w14], [w15]
    17e2:	17 00 3a    	bra       NZ, 0x1812 <.L174>
    17e4:	8e 00 e8    	inc.w     w14, w1
    17e6:	64 40 50    	sub.b     w0, #0x4, w0
    17e8:	91 4f 10    	subr.b    w0, [w1], [w15]
    17ea:	02 00 32    	bra       Z, 0x17f0 <.L27>
    17ec:	01 07 78    	mov.w     w1, w14
    17ee:	0c 00 37    	bra       0x1808 <.L29>

000017f0 <.L27>:
    17f0:	0f ba 97    	mov.w     [w15-16], w4
    17f2:	44 03 78    	mov.w     [--w4], w6
    17f4:	84 bf 9f    	mov.w     w4, [w15-16]
    17f6:	96 b7 9f    	mov.w     w6, [w15-30]
    17f8:	0e 87 e8    	inc2.w    w14, w14
    17fa:	0b 00 37    	bra       0x1812 <.L174>

000017fc <.L30>:
    17fc:	1f b6 97    	mov.w     [w15-30], w12
    17fe:	6a 60 b9    	mul.su    w12, #0xa, w0
    1800:	00 00 41    	add.w     w2, w0, w0
    1802:	03 00 40    	add.w     w0, w3, w0
    1804:	90 b7 9f    	mov.w     w0, [w15-30]
    1806:	0e 07 e8    	inc.w     w14, w14

00001808 <.L29>:
    1808:	1e 01 fb    	se        [w14], w2
    180a:	03 fd 2f    	mov.w     #0xffd0, w3
    180c:	03 00 41    	add.w     w2, w3, w0
    180e:	e9 0f 50    	sub.w     w0, #0x9, [w15]
    1810:	f5 ff 36    	bra       LEU, 0x17fc <.L30>

00001812 <.L174>:
    1812:	be 40 78    	mov.b     [w14++], w1
    1814:	a1 df 9f    	mov.b     w1, [w15-38]
    1816:	30 c7 b3    	mov.b     #0x73, w0
    1818:	80 cf 50    	sub.b     w1, w0, [w15]
    181a:	1a 00 32    	bra       Z, 0x1850 <.L35>
    181c:	09 00 3c    	bra       GT, 0x1830 <.L38>
    181e:	70 40 50    	sub.b     w0, #0x10, w0
    1820:	80 cf 50    	sub.b     w1, w0, [w15]
    1822:	64 00 32    	bra       Z, 0x18ec <.L33>
    1824:	69 40 40    	add.b     w0, #0x9, w0
    1826:	80 cf 50    	sub.b     w1, w0, [w15]
    1828:	0a 00 32    	bra       Z, 0x183e <.L34>
    182a:	01 04 e0    	cp0.b     w1
    182c:	a4 01 32    	bra       Z, 0x1b76 <.L32>
    182e:	7d 00 37    	bra       0x192a <.L31>

00001830 <.L38>:
    1830:	50 c7 b3    	mov.b     #0x75, w0
    1832:	80 cf 50    	sub.b     w1, w0, [w15]
    1834:	7e 00 32    	bra       Z, 0x1932 <.L36>
    1836:	63 40 40    	add.b     w0, #0x3, w0
    1838:	80 cf 50    	sub.b     w1, w0, [w15]
    183a:	77 00 3a    	bra       NZ, 0x192a <.L31>
    183c:	06 00 37    	bra       0x184a <.L37>

0000183e <.L34>:
    183e:	00 40 eb    	clr.b     w0
    1840:	0d 48 a3    	btst.z    w13, #0x4
    1842:	01 00 3a    	bra       NZ, 0x1846 <.L41>
    1844:	00 c1 b3    	mov.b     #0x10, w0

00001846 <.L41>:
    1846:	80 c6 76    	ior.b     w13, w0, w13
    1848:	e4 ff 37    	bra       0x1812 <.L174>

0000184a <.L37>:
    184a:	8d 42 78    	mov.b     w13, w5
    184c:	05 74 a0    	bset.b    w5, #0x7
    184e:	73 00 37    	bra       0x1936 <.L42>

00001850 <.L35>:
    1850:	8f b8 97    	mov.w     [w15-16], w1
    1852:	41 00 78    	mov.w     [--w1], w0
    1854:	81 bf 9f    	mov.w     w1, [w15-16]
    1856:	00 04 78    	mov.w     w0, w8
    1858:	00 00 e0    	cp0.w     w0
    185a:	01 00 3a    	bra       NZ, 0x185e <.L43>
    185c:	68 bc 20    	mov.w     #0xbc6, w8

0000185e <.L43>:
    185e:	80 04 eb    	clr.w     w9
    1860:	01 00 37    	bra       0x1864 <.L45>

00001862 <.L46>:
    1862:	81 04 e8    	inc.w     w1, w9

00001864 <.L45>:
    1864:	89 00 78    	mov.w     w9, w1
    1866:	08 80 44    	add.w     w9, w8, w0
    1868:	10 04 e0    	cp0.b     [w0]
    186a:	fb ff 3a    	bra       NZ, 0x1862 <.L46>

0000186c <.L47>:
    186c:	1f b1 97    	mov.w     [w15-30], w2
    186e:	02 00 e0    	cp0.w     w2
    1870:	03 00 32    	bra       Z, 0x1878 <.L48>
    1872:	89 0f 51    	sub.w     w2, w9, [w15]
    1874:	01 00 31    	bra       C, 0x1878 <.L48>
    1876:	82 04 78    	mov.w     w2, w9

00001878 <.L48>:
    1878:	00 02 eb    	clr.w     w4
    187a:	84 b7 9f    	mov.w     w4, [w15-32]
    187c:	5f b3 97    	mov.w     [w15-22], w6
    187e:	89 0f 53    	sub.w     w6, w9, [w15]
    1880:	02 00 36    	bra       LEU, 0x1886 <.L53>
    1882:	09 00 53    	sub.w     w6, w9, w0
    1884:	80 b7 9f    	mov.w     w0, [w15-32]

00001886 <.L53>:
    1886:	43 68 de    	lsr.w     w13, #0x3, w0
    1888:	e1 06 60    	and.w     w0, #0x1, w13
    188a:	1b 00 3a    	bra       NZ, 0x18c2 <.L184>
    188c:	0d 06 78    	mov.w     w13, w12
    188e:	09 00 37    	bra       0x18a2 <.L56>

00001890 <.L57>:
    1890:	ff b0 97    	mov.w     [w15-18], w1
    1892:	00 02 20    	mov.w     #0x20, w0
    1894:	07 ff 07    	rcall     0x16a4 <_fputc>
    1896:	e1 0f 40    	add.w     w0, #0x1, [w15]
    1898:	03 00 32    	bra       Z, 0x18a0 <.L58>
    189a:	4f b0 97    	mov.w     [w15-24], w0
    189c:	00 00 e8    	inc.w     w0, w0
    189e:	c0 b7 9f    	mov.w     w0, [w15-24]

000018a0 <.L58>:
    18a0:	0c 06 e8    	inc.w     w12, w12

000018a2 <.L56>:
    18a2:	8f b0 97    	mov.w     [w15-32], w1
    18a4:	81 0f 56    	sub.w     w12, w1, [w15]
    18a6:	f4 ff 3a    	bra       NZ, 0x1890 <.L57>
    18a8:	00 81 eb    	setm.w    w2
    18aa:	82 b7 9f    	mov.w     w2, [w15-32]
    18ac:	0a 00 37    	bra       0x18c2 <.L184>

000018ae <.L61>:
    18ae:	88 00 78    	mov.w     w8, w1
    18b0:	31 00 fb    	se        [w1++], w0
    18b2:	01 04 78    	mov.w     w1, w8
    18b4:	ff b0 97    	mov.w     [w15-18], w1
    18b6:	f6 fe 07    	rcall     0x16a4 <_fputc>
    18b8:	e1 0f 40    	add.w     w0, #0x1, [w15]
    18ba:	03 00 32    	bra       Z, 0x18c2 <.L184>
    18bc:	4f b2 97    	mov.w     [w15-24], w4
    18be:	04 02 e8    	inc.w     w4, w4
    18c0:	c4 b7 9f    	mov.w     w4, [w15-24]

000018c2 <.L184>:
    18c2:	09 00 e9    	dec.w     w9, w0
    18c4:	80 04 78    	mov.w     w0, w9
    18c6:	e1 0f 40    	add.w     w0, #0x1, [w15]
    18c8:	f2 ff 3a    	bra       NZ, 0x18ae <.L61>
    18ca:	00 06 eb    	clr.w     w12
    18cc:	0d 00 e0    	cp0.w     w13
    18ce:	0a 00 3a    	bra       NZ, 0x18e4 <.L65>
    18d0:	4e 01 37    	bra       0x1b6e <.L185>

000018d2 <.L66>:
    18d2:	ff b0 97    	mov.w     [w15-18], w1
    18d4:	00 02 20    	mov.w     #0x20, w0
    18d6:	e6 fe 07    	rcall     0x16a4 <_fputc>
    18d8:	e1 0f 40    	add.w     w0, #0x1, [w15]
    18da:	03 00 32    	bra       Z, 0x18e2 <.L67>
    18dc:	4f b3 97    	mov.w     [w15-24], w6
    18de:	06 03 e8    	inc.w     w6, w6
    18e0:	c6 b7 9f    	mov.w     w6, [w15-24]

000018e2 <.L67>:
    18e2:	0c 06 e8    	inc.w     w12, w12

000018e4 <.L65>:
    18e4:	0f b0 97    	mov.w     [w15-32], w0
    18e6:	80 0f 56    	sub.w     w12, w0, [w15]
    18e8:	f4 ff 3a    	bra       NZ, 0x18d2 <.L66>
    18ea:	41 01 37    	bra       0x1b6e <.L185>

000018ec <.L33>:
    18ec:	8f b8 97    	mov.w     [w15-16], w1
    18ee:	41 00 78    	mov.w     [--w1], w0
    18f0:	81 bf 9f    	mov.w     w1, [w15-16]
    18f2:	cf 80 de    	asr.w     w0, #0xf, w1
    18f4:	01 01 78    	mov.w     w1, w2
    18f6:	82 01 78    	mov.w     w2, w3
    18f8:	02 05 be    	mov.d     w2, w10
    18fa:	00 04 be    	mov.d     w0, w8
    18fc:	02 03 be    	mov.d     w2, w6
    18fe:	00 02 be    	mov.d     w0, w4
    1900:	48 22 de    	lsr.w     w4, #0x8, w4
    1902:	48 2e dd    	sl.w      w5, #0x8, w12
    1904:	04 02 76    	ior.w     w12, w4, w4
    1906:	a4 df 9f    	mov.b     w4, [w15-38]
    1908:	0d 48 a3    	btst.z    w13, #0x4
    190a:	0a 00 32    	bra       Z, 0x1920 <.L69>
    190c:	04 04 e0    	cp0.b     w4
    190e:	08 00 32    	bra       Z, 0x1920 <.L69>
    1910:	e1 4f 42    	add.b     w4, #0x1, [w15]
    1912:	06 00 32    	bra       Z, 0x1920 <.L69>
    1914:	b1 fd 2f    	mov.w     #0xffdb, w1
    1916:	01 80 47    	add.w     w15, w1, w0
    1918:	04 48 78    	mov.b     w4, [w0]
    191a:	18 40 98    	mov.b     w8, [w0+1]
    191c:	29 00 20    	mov.w     #0x2, w9
    191e:	02 00 37    	bra       0x1924 <.L73>

00001920 <.L69>:
    1920:	b0 df 9f    	mov.b     w0, [w15-37]
    1922:	19 00 20    	mov.w     #0x1, w9

00001924 <.L73>:
    1924:	b2 fd 2f    	mov.w     #0xffdb, w2
    1926:	02 84 47    	add.w     w15, w2, w8
    1928:	a1 ff 37    	bra       0x186c <.L47>

0000192a <.L31>:
    192a:	a4 fd 2f    	mov.w     #0xffda, w4
    192c:	04 84 47    	add.w     w15, w4, w8
    192e:	19 00 20    	mov.w     #0x1, w9
    1930:	9d ff 37    	bra       0x186c <.L47>

00001932 <.L36>:
    1932:	00 cc b3    	mov.b     #0xc0, w0
    1934:	80 c2 76    	ior.b     w13, w0, w5

00001936 <.L42>:
    1936:	05 83 fb    	ze        w5, w6
    1938:	e6 b7 9f    	mov.w     w6, [w15-20]
    193a:	06 48 a3    	btst.z    w6, #0x4
    193c:	07 00 32    	bra       Z, 0x194c <.L77>
    193e:	0f be 97    	mov.w     [w15-16], w12
    1940:	4c 00 be    	mov.d     [--w12], w0
    1942:	8c bf 9f    	mov.w     w12, [w15-16]
    1944:	60 11 b8    	mul.uu    w2, #0x0, w2
    1946:	02 05 be    	mov.d     w2, w10
    1948:	00 04 be    	mov.d     w0, w8
    194a:	07 00 37    	bra       0x195a <.L76>

0000194c <.L77>:
    194c:	8f b8 97    	mov.w     [w15-16], w1
    194e:	41 00 78    	mov.w     [--w1], w0
    1950:	81 bf 9f    	mov.w     w1, [w15-16]
    1952:	00 04 78    	mov.w     w0, w8
    1954:	09 00 20    	mov.w     #0x0, w9
    1956:	0a 00 20    	mov.w     #0x0, w10
    1958:	0b 00 20    	mov.w     #0x0, w11

0000195a <.L76>:
    195a:	1f b1 97    	mov.w     [w15-30], w2
    195c:	02 00 e0    	cp0.w     w2
    195e:	07 00 3a    	bra       NZ, 0x196e <.L79>
    1960:	e0 0f 54    	sub.w     w8, #0x0, [w15]
    1962:	e0 8f 5c    	subb.w    w9, #0x0, [w15]
    1964:	e0 0f 5d    	subb.w    w10, #0x0, [w15]
    1966:	e0 8f 5d    	subb.w    w11, #0x0, [w15]
    1968:	02 00 3a    	bra       NZ, 0x196e <.L79>
    196a:	14 00 20    	mov.w     #0x1, w4
    196c:	94 b7 9f    	mov.w     w4, [w15-30]

0000196e <.L79>:
    196e:	ef b0 97    	mov.w     [w15-20], w1
    1970:	01 0c b2    	and.w     #0xc0, w1
    1972:	00 08 20    	mov.w     #0x80, w0
    1974:	80 8f 50    	sub.w     w1, w0, [w15]
    1976:	14 00 32    	bra       Z, 0x19a0 <.L84>
    1978:	00 0c 20    	mov.w     #0xc0, w0
    197a:	80 8f 50    	sub.w     w1, w0, [w15]
    197c:	25 00 3a    	bra       NZ, 0x19c8 <.L83>
    197e:	14 c0 b3    	mov.b     #0x1, w4
    1980:	06 b0 20    	mov.w     #0xb00, w6
    1982:	0b 00 37    	bra       0x199a <.L86>

00001984 <.L87>:
    1984:	04 00 fb    	se        w4, w0
    1986:	43 00 dd    	sl.w      w0, #0x3, w0
    1988:	06 00 40    	add.w     w0, w6, w0
    198a:	50 01 be    	mov.d     [++w0], w2
    198c:	40 00 be    	mov.d     [--w0], w0
    198e:	00 40 e1    	cp.w      w8, w0
    1990:	01 c8 e1    	cpb.w     w9, w1
    1992:	02 d0 e1    	cpb.w     w10, w2
    1994:	03 d8 e1    	cpb.w     w11, w3
    1996:	17 00 39    	bra       NC, 0x19c6 <.L183>
    1998:	04 42 e8    	inc.b     w4, w4

0000199a <.L86>:
    199a:	f4 4f 52    	sub.b     w4, #0x14, [w15]
    199c:	f3 ff 3a    	bra       NZ, 0x1984 <.L87>
    199e:	13 00 37    	bra       0x19c6 <.L183>

000019a0 <.L84>:
    19a0:	00 01 20    	mov.w     #0x10, w0
    19a2:	01 00 20    	mov.w     #0x0, w1
    19a4:	60 11 b8    	mul.uu    w2, #0x0, w2
    19a6:	14 c0 b3    	mov.b     #0x1, w4

000019a8 <.L91>:
    19a8:	00 40 e1    	cp.w      w8, w0
    19aa:	01 c8 e1    	cpb.w     w9, w1
    19ac:	02 d0 e1    	cpb.w     w10, w2
    19ae:	03 d8 e1    	cpb.w     w11, w3
    19b0:	0a 00 39    	bra       NC, 0x19c6 <.L183>
    19b2:	46 00 20    	mov.w     #0x4, w6

000019b4 <.LB515>:
    19b4:	00 00 d0    	sl.w      w0, w0
    19b6:	81 80 d2    	rlc.w     w1, w1
    19b8:	02 81 d2    	rlc.w     w2, w2
    19ba:	83 81 d2    	rlc.w     w3, w3
    19bc:	06 03 e9    	dec.w     w6, w6
    19be:	fa ff 3a    	bra       NZ, 0x19b4 <.LB515>
    19c0:	04 42 e8    	inc.b     w4, w4
    19c2:	f0 4f 52    	sub.b     w4, #0x10, [w15]
    19c4:	f1 ff 3a    	bra       NZ, 0x19a8 <.L91>

000019c6 <.L183>:
    19c6:	a4 df 9f    	mov.b     w4, [w15-38]

000019c8 <.L83>:
    19c8:	2f de 97    	mov.b     [w15-38], w12
    19ca:	0c 00 fb    	se        w12, w0
    19cc:	9f b0 97    	mov.w     [w15-30], w1
    19ce:	81 0f 50    	sub.w     w0, w1, [w15]
    19d0:	02 00 3d    	bra       GE, 0x19d6 <.L95>
    19d2:	a1 df 9f    	mov.b     w1, [w15-38]
    19d4:	04 00 37    	bra       0x19de <.L97>

000019d6 <.L95>:
    19d6:	1f b1 97    	mov.w     [w15-30], w2
    19d8:	80 0f 51    	sub.w     w2, w0, [w15]
    19da:	01 00 3d    	bra       GE, 0x19de <.L97>
    19dc:	90 b7 9f    	mov.w     w0, [w15-30]

000019de <.L97>:
    19de:	5f b2 97    	mov.w     [w15-22], w4
    19e0:	04 00 e0    	cp0.w     w4
    19e2:	05 00 32    	bra       Z, 0x19ee <.L99>
    19e4:	6f b3 97    	mov.w     [w15-20], w6
    19e6:	63 00 63    	and.w     w6, #0x3, w0
    19e8:	02 00 32    	bra       Z, 0x19ee <.L99>
    19ea:	04 02 e9    	dec.w     w4, w4
    19ec:	d4 b7 9f    	mov.w     w4, [w15-22]

000019ee <.L99>:
    19ee:	85 82 fb    	ze        w5, w5
    19f0:	a5 b7 9f    	mov.w     w5, [w15-28]
    19f2:	2f de 97    	mov.b     [w15-38], w12
    19f4:	0c 00 fb    	se        w12, w0
    19f6:	80 00 eb    	clr.w     w1
    19f8:	f1 af 9f    	mov.w     w1, [w15-34]
    19fa:	5f b1 97    	mov.w     [w15-22], w2
    19fc:	80 0f 51    	sub.w     w2, w0, [w15]
    19fe:	02 00 34    	bra       LE, 0x1a04 <.L108>
    1a00:	00 00 51    	sub.w     w2, w0, w0
    1a02:	f0 af 9f    	mov.w     w0, [w15-34]

00001a04 <.L108>:
    1a04:	2f b2 97    	mov.w     [w15-28], w4
    1a06:	04 28 a3    	btst.z    w4, #0x2
    1a08:	35 00 32    	bra       Z, 0x1a74 <.L109>
    1a0a:	6f b3 97    	mov.w     [w15-20], w6
    1a0c:	e1 00 63    	and.w     w6, #0x1, w1
    1a0e:	04 18 a3    	btst.z    w4, #0x1
    1a10:	0c 00 32    	bra       Z, 0x1a2a <.L111>
    1a12:	d0 02 20    	mov.w     #0x2d, w0
    1a14:	01 00 e0    	cp0.w     w1
    1a16:	01 00 3a    	bra       NZ, 0x1a1a <.L115>
    1a18:	00 80 e9    	dec2.w    w0, w0

00001a1a <.L115>:
    1a1a:	ff b0 97    	mov.w     [w15-18], w1
    1a1c:	43 fe 07    	rcall     0x16a4 <_fputc>
    1a1e:	e1 0f 40    	add.w     w0, #0x1, [w15]
    1a20:	0e 00 32    	bra       Z, 0x1a3e <.L116>
    1a22:	4f b6 97    	mov.w     [w15-24], w12
    1a24:	0c 06 e8    	inc.w     w12, w12
    1a26:	cc b7 9f    	mov.w     w12, [w15-24]
    1a28:	0a 00 37    	bra       0x1a3e <.L116>

00001a2a <.L111>:
    1a2a:	01 00 e0    	cp0.w     w1
    1a2c:	08 00 32    	bra       Z, 0x1a3e <.L116>
    1a2e:	ff b0 97    	mov.w     [w15-18], w1
    1a30:	00 02 20    	mov.w     #0x20, w0
    1a32:	38 fe 07    	rcall     0x16a4 <_fputc>
    1a34:	e1 0f 40    	add.w     w0, #0x1, [w15]
    1a36:	03 00 32    	bra       Z, 0x1a3e <.L116>
    1a38:	4f b0 97    	mov.w     [w15-24], w0
    1a3a:	00 00 e8    	inc.w     w0, w0
    1a3c:	c0 b7 9f    	mov.w     w0, [w15-24]

00001a3e <.L116>:
    1a3e:	ff a8 97    	mov.w     [w15-34], w1
    1a40:	01 00 e0    	cp0.w     w1
    1a42:	0f 00 32    	bra       Z, 0x1a62 <.L120>
    1a44:	00 06 eb    	clr.w     w12

00001a46 <.L122>:
    1a46:	ff b0 97    	mov.w     [w15-18], w1
    1a48:	00 03 20    	mov.w     #0x30, w0
    1a4a:	2c fe 07    	rcall     0x16a4 <_fputc>
    1a4c:	e1 0f 40    	add.w     w0, #0x1, [w15]
    1a4e:	03 00 32    	bra       Z, 0x1a56 <.L123>
    1a50:	4f b1 97    	mov.w     [w15-24], w2
    1a52:	02 01 e8    	inc.w     w2, w2
    1a54:	c2 b7 9f    	mov.w     w2, [w15-24]

00001a56 <.L123>:
    1a56:	0c 06 e8    	inc.w     w12, w12
    1a58:	7f aa 97    	mov.w     [w15-34], w4
    1a5a:	84 0f 56    	sub.w     w12, w4, [w15]
    1a5c:	f4 ff 3a    	bra       NZ, 0x1a46 <.L122>
    1a5e:	00 03 eb    	clr.w     w6
    1a60:	f6 af 9f    	mov.w     w6, [w15-34]

00001a62 <.L120>:
    1a62:	1f b6 97    	mov.w     [w15-30], w12
    1a64:	43 60 dd    	sl.w      w12, #0x3, w0
    1a66:	81 af 20    	mov.w     #0xaf8, w1
    1a68:	81 06 40    	add.w     w0, w1, w13
    1a6a:	42 60 dd    	sl.w      w12, #0x2, w0
    1a6c:	64 06 50    	sub.w     w0, #0x4, w12
    1a6e:	00 00 eb    	clr.w     w0
    1a70:	b0 b7 9f    	mov.w     w0, [w15-26]
    1a72:	66 00 37    	bra       0x1b40 <.L126>

00001a74 <.L109>:
    1a74:	ff a8 97    	mov.w     [w15-34], w1
    1a76:	01 00 e0    	cp0.w     w1
    1a78:	12 00 32    	bra       Z, 0x1a9e <.L127>
    1a7a:	2f b1 97    	mov.w     [w15-28], w2
    1a7c:	68 00 61    	and.w     w2, #0x8, w0
    1a7e:	0f 00 3a    	bra       NZ, 0x1a9e <.L127>
    1a80:	00 06 78    	mov.w     w0, w12

00001a82 <.L130>:
    1a82:	ff b0 97    	mov.w     [w15-18], w1
    1a84:	00 02 20    	mov.w     #0x20, w0
    1a86:	0e fe 07    	rcall     0x16a4 <_fputc>
    1a88:	e1 0f 40    	add.w     w0, #0x1, [w15]
    1a8a:	03 00 32    	bra       Z, 0x1a92 <.L131>
    1a8c:	4f b2 97    	mov.w     [w15-24], w4
    1a8e:	04 02 e8    	inc.w     w4, w4
    1a90:	c4 b7 9f    	mov.w     w4, [w15-24]

00001a92 <.L131>:
    1a92:	0c 06 e8    	inc.w     w12, w12
    1a94:	7f ab 97    	mov.w     [w15-34], w6
    1a96:	86 0f 56    	sub.w     w12, w6, [w15]
    1a98:	f4 ff 3a    	bra       NZ, 0x1a82 <.L130>
    1a9a:	00 06 eb    	clr.w     w12
    1a9c:	fc af 9f    	mov.w     w12, [w15-34]

00001a9e <.L127>:
    1a9e:	6f b0 97    	mov.w     [w15-20], w0
    1aa0:	e1 00 60    	and.w     w0, #0x1, w1
    1aa2:	2f b1 97    	mov.w     [w15-28], w2
    1aa4:	02 18 a3    	btst.z    w2, #0x1
    1aa6:	0c 00 32    	bra       Z, 0x1ac0 <.L134>
    1aa8:	d0 02 20    	mov.w     #0x2d, w0
    1aaa:	01 00 e0    	cp0.w     w1
    1aac:	01 00 3a    	bra       NZ, 0x1ab0 <.L138>
    1aae:	00 80 e9    	dec2.w    w0, w0

00001ab0 <.L138>:
    1ab0:	ff b0 97    	mov.w     [w15-18], w1
    1ab2:	f8 fd 07    	rcall     0x16a4 <_fputc>
    1ab4:	e1 0f 40    	add.w     w0, #0x1, [w15]
    1ab6:	d5 ff 32    	bra       Z, 0x1a62 <.L120>
    1ab8:	4f b2 97    	mov.w     [w15-24], w4
    1aba:	04 02 e8    	inc.w     w4, w4
    1abc:	c4 b7 9f    	mov.w     w4, [w15-24]
    1abe:	d1 ff 37    	bra       0x1a62 <.L120>

00001ac0 <.L134>:
    1ac0:	01 00 e0    	cp0.w     w1
    1ac2:	cf ff 32    	bra       Z, 0x1a62 <.L120>
    1ac4:	ff b0 97    	mov.w     [w15-18], w1
    1ac6:	00 02 20    	mov.w     #0x20, w0
    1ac8:	ed fd 07    	rcall     0x16a4 <_fputc>
    1aca:	e1 0f 40    	add.w     w0, #0x1, [w15]
    1acc:	ca ff 32    	bra       Z, 0x1a62 <.L120>
    1ace:	4f b3 97    	mov.w     [w15-24], w6
    1ad0:	06 03 e8    	inc.w     w6, w6
    1ad2:	c6 b7 9f    	mov.w     w6, [w15-24]
    1ad4:	c6 ff 37    	bra       0x1a62 <.L120>

00001ad6 <.L142>:
    1ad6:	ef b0 97    	mov.w     [w15-20], w1
    1ad8:	01 0c b2    	and.w     #0xc0, w1
    1ada:	00 08 20    	mov.w     #0x80, w0
    1adc:	80 8f 50    	sub.w     w1, w0, [w15]
    1ade:	10 00 32    	bra       Z, 0x1b00 <.L144>
    1ae0:	00 0c 20    	mov.w     #0xc0, w0
    1ae2:	80 8f 50    	sub.w     w1, w0, [w15]
    1ae4:	1f 00 3a    	bra       NZ, 0x1b24 <.L143>
    1ae6:	3d 02 be    	mov.d     [w13++], w4
    1ae8:	2d 03 be    	mov.d     [w13--], w6
    1aea:	08 00 be    	mov.d     w8, w0
    1aec:	0a 01 be    	mov.d     w10, w2
    1aee:	29 fd 07    	rcall     0x1542 <___udivdi3>
    1af0:	a4 00 20    	mov.w     #0xa, w4
    1af2:	05 00 20    	mov.w     #0x0, w5
    1af4:	60 33 b8    	mul.uu    w6, #0x0, w6
    1af6:	2c fd 07    	rcall     0x1550 <___umoddi3>
    1af8:	04 c3 b3    	mov.b     #0x30, w4
    1afa:	04 42 40    	add.b     w0, w4, w4
    1afc:	a4 df 9f    	mov.b     w4, [w15-38]
    1afe:	12 00 37    	bra       0x1b24 <.L143>

00001b00 <.L144>:
    1b00:	14 00 20    	mov.w     #0x1, w4
    1b02:	05 00 20    	mov.w     #0x0, w5
    1b04:	60 33 b8    	mul.uu    w6, #0x0, w6
    1b06:	0c 00 78    	mov.w     w12, w0

00001b08 <.LB761>:
    1b08:	00 00 e9    	dec.w     w0, w0
    1b0a:	05 00 33    	bra       N, 0x1b16 <.LE761>
    1b0c:	04 02 d0    	sl.w      w4, w4
    1b0e:	85 82 d2    	rlc.w     w5, w5
    1b10:	06 83 d2    	rlc.w     w6, w6
    1b12:	87 83 d2    	rlc.w     w7, w7
    1b14:	f9 ff 37    	bra       0x1b08 <.LB761>

00001b16 <.LE761>:
    1b16:	08 00 be    	mov.d     w8, w0
    1b18:	0a 01 be    	mov.d     w10, w2
    1b1a:	13 fd 07    	rcall     0x1542 <___udivdi3>
    1b1c:	6f 00 60    	and.w     w0, #0xf, w0
    1b1e:	d4 bc 20    	mov.w     #0xbcd, w4
    1b20:	64 42 78    	mov.b     [w4+w0], w4
    1b22:	a4 df 9f    	mov.b     w4, [w15-38]

00001b24 <.L143>:
    1b24:	af d8 97    	mov.b     [w15-38], w1
    1b26:	01 00 fb    	se        w1, w0
    1b28:	ff b0 97    	mov.w     [w15-18], w1
    1b2a:	bc fd 07    	rcall     0x16a4 <_fputc>
    1b2c:	e1 0f 40    	add.w     w0, #0x1, [w15]
    1b2e:	03 00 32    	bra       Z, 0x1b36 <.L146>
    1b30:	4f b1 97    	mov.w     [w15-24], w2
    1b32:	02 01 e8    	inc.w     w2, w2
    1b34:	c2 b7 9f    	mov.w     w2, [w15-24]

00001b36 <.L146>:
    1b36:	3f b2 97    	mov.w     [w15-26], w4
    1b38:	04 02 e8    	inc.w     w4, w4
    1b3a:	b4 b7 9f    	mov.w     w4, [w15-26]
    1b3c:	e8 86 56    	sub.w     w13, #0x8, w13
    1b3e:	64 06 56    	sub.w     w12, #0x4, w12

00001b40 <.L126>:
    1b40:	3f b3 97    	mov.w     [w15-26], w6
    1b42:	1f b0 97    	mov.w     [w15-30], w0
    1b44:	80 0f 53    	sub.w     w6, w0, [w15]
    1b46:	c7 ff 3a    	bra       NZ, 0x1ad6 <.L142>
    1b48:	af b0 97    	mov.w     [w15-28], w1
    1b4a:	01 38 a3    	btst.z    w1, #0x3
    1b4c:	10 00 32    	bra       Z, 0x1b6e <.L185>
    1b4e:	7f a9 97    	mov.w     [w15-34], w2
    1b50:	02 00 e0    	cp0.w     w2
    1b52:	0d 00 34    	bra       LE, 0x1b6e <.L185>
    1b54:	00 06 eb    	clr.w     w12

00001b56 <.L151>:
    1b56:	ff b0 97    	mov.w     [w15-18], w1
    1b58:	00 02 20    	mov.w     #0x20, w0
    1b5a:	a4 fd 07    	rcall     0x16a4 <_fputc>
    1b5c:	e1 0f 40    	add.w     w0, #0x1, [w15]
    1b5e:	03 00 32    	bra       Z, 0x1b66 <.L152>
    1b60:	4f b2 97    	mov.w     [w15-24], w4
    1b62:	04 02 e8    	inc.w     w4, w4
    1b64:	c4 b7 9f    	mov.w     w4, [w15-24]

00001b66 <.L152>:
    1b66:	0c 06 e8    	inc.w     w12, w12
    1b68:	7f ab 97    	mov.w     [w15-34], w6
    1b6a:	86 0f 56    	sub.w     w12, w6, [w15]
    1b6c:	f4 ff 3a    	bra       NZ, 0x1b56 <.L151>

00001b6e <.L185>:
    1b6e:	be 40 78    	mov.b     [w14++], w1
    1b70:	a1 df 9f    	mov.b     w1, [w15-38]
    1b72:	01 04 e0    	cp0.b     w1
    1b74:	e9 fd 3a    	bra       NZ, 0x1748 <.L3>

00001b76 <.L32>:
    1b76:	4f b0 97    	mov.w     [w15-24], w0
    1b78:	4f 07 78    	mov.w     [--w15], w14
    1b7a:	4f 06 be    	mov.d     [--w15], w12
    1b7c:	4f 05 be    	mov.d     [--w15], w10
    1b7e:	4f 04 be    	mov.d     [--w15], w8
    1b80:	af 01 b1    	sub.w     #0x1a, w15
    1b82:	00 00 06    	return    

00001b84 <__flsbuf>:
    1b84:	02 00 fa    	lnk       #0x2
    1b86:	88 9f be    	mov.d     w8, [w15++]
    1b88:	a0 ff 9f    	mov.b     w0, [w15-6]
    1b8a:	01 04 78    	mov.w     w1, w8
    1b8c:	b1 00 90    	mov.w     [w1+6], w1
    1b8e:	81 04 78    	mov.w     w1, w9
    1b90:	09 04 b2    	and.w     #0x40, w9
    1b92:	02 00 32    	bra       Z, 0x1b98 <.L2>
    1b94:	00 00 fb    	se        w0, w0
    1b96:	36 00 37    	bra       0x1c04 <.L4>

00001b98 <.L2>:
    1b98:	01 18 a3    	btst.z    w1, #0x1
    1b9a:	05 00 3a    	bra       NZ, 0x1ba6 <.L5>
    1b9c:	01 03 b3    	ior.w     #0x30, w1
    1b9e:	31 04 98    	mov.w     w1, [w8+6]
    1ba0:	19 04 98    	mov.w     w9, [w8+2]
    1ba2:	00 80 eb    	setm.w    w0
    1ba4:	2f 00 37    	bra       0x1c04 <.L4>

00001ba6 <.L5>:
    1ba6:	58 00 90    	mov.w     [w8+10], w0
    1ba8:	00 00 e0    	cp0.w     w0
    1baa:	06 00 3a    	bra       NZ, 0x1bb8 <.L7>
    1bac:	48 00 90    	mov.w     [w8+8], w0
    1bae:	12 00 20    	mov.w     #0x1, w2
    1bb0:	e6 80 57    	sub.w     w15, #0x6, w1
    1bb2:	e5 01 07    	rcall     0x1f7e <_write>
    1bb4:	19 04 98    	mov.w     w9, [w8+2]
    1bb6:	24 00 37    	bra       0x1c00 <.L11>

00001bb8 <.L7>:
    1bb8:	28 00 90    	mov.w     [w8+4], w0
    1bba:	00 00 e0    	cp0.w     w0
    1bbc:	08 00 3a    	bra       NZ, 0x1bce <.L9>
    1bbe:	e0 bd 20    	mov.w     #0xbde, w0
    1bc0:	20 04 98    	mov.w     w0, [w8+4]
    1bc2:	00 0c 78    	mov.w     w0, [w8]
    1bc4:	20 00 20    	mov.w     #0x2, w0
    1bc6:	50 04 98    	mov.w     w0, [w8+10]
    1bc8:	10 04 98    	mov.w     w0, [w8+2]
    1bca:	01 30 a0    	bset.w    w1, #0x3
    1bcc:	31 04 98    	mov.w     w1, [w8+6]

00001bce <.L9>:
    1bce:	18 01 90    	mov.w     [w8+2], w2
    1bd0:	a8 00 90    	mov.w     [w8+4], w1
    1bd2:	48 00 90    	mov.w     [w8+8], w0
    1bd4:	d4 01 07    	rcall     0x1f7e <_write>
    1bd6:	28 00 90    	mov.w     [w8+4], w0
    1bd8:	00 0c 78    	mov.w     w0, [w8]
    1bda:	00 80 eb    	setm.w    w0
    1bdc:	10 04 98    	mov.w     w0, [w8+2]
    1bde:	18 00 78    	mov.w     [w8], w0
    1be0:	af f8 97    	mov.b     [w15-6], w1
    1be2:	01 58 78    	mov.b     w1, [w0++]
    1be4:	00 0c 78    	mov.w     w0, [w8]
    1be6:	2f f8 97    	mov.b     [w15-6], w0
    1be8:	ea 4f 50    	sub.b     w0, #0xa, [w15]
    1bea:	0a 00 3a    	bra       NZ, 0x1c00 <.L11>
    1bec:	38 00 90    	mov.w     [w8+6], w0
    1bee:	00 88 a3    	btst.z    w0, #0x8
    1bf0:	07 00 32    	bra       Z, 0x1c00 <.L11>
    1bf2:	18 01 90    	mov.w     [w8+2], w2
    1bf4:	a8 00 90    	mov.w     [w8+4], w1
    1bf6:	48 00 90    	mov.w     [w8+8], w0
    1bf8:	c2 01 07    	rcall     0x1f7e <_write>
    1bfa:	19 04 98    	mov.w     w9, [w8+2]
    1bfc:	a8 00 90    	mov.w     [w8+4], w1
    1bfe:	01 0c 78    	mov.w     w1, [w8]

00001c00 <.L11>:
    1c00:	af f8 97    	mov.b     [w15-6], w1
    1c02:	01 00 fb    	se        w1, w0

00001c04 <.L4>:
    1c04:	4f 04 be    	mov.d     [--w15], w8
    1c06:	00 80 fa    	ulnk      
    1c08:	00 00 06    	return    
Disassembly of section __CONFIG3:

000157fa <__CONFIG3.sec>:
   157fa:	03 1c 00    	nop       
Disassembly of section __CONFIG2:

000157fc <__CONFIG2.sec>:
   157fc:	0f 89 00    	nop       
Disassembly of section __CONFIG1:

000157fe <__CONFIG1.sec>:
   157fe:	7f 3e 00    	nop       
Disassembly of section .application_ivt:

00001000 <__DEFAULT_VECTOR-0x10c>:
    1000:	10 11 04    	goto      0x1110 <__reset>
    1002:	00 00 00 
    1004:	24 30 04    	goto      0x3024 <__DefaultInterrupt>
    1006:	00 00 00 
    1008:	24 30 04    	goto      0x3024 <__DefaultInterrupt>
    100a:	00 00 00 
    100c:	24 30 04    	goto      0x3024 <__DefaultInterrupt>
    100e:	00 00 00 
    1010:	24 30 04    	goto      0x3024 <__DefaultInterrupt>
    1012:	00 00 00 
    1014:	24 30 04    	goto      0x3024 <__DefaultInterrupt>
    1016:	00 00 00 
    1018:	24 30 04    	goto      0x3024 <__DefaultInterrupt>
    101a:	00 00 00 
    101c:	24 30 04    	goto      0x3024 <__DefaultInterrupt>
    101e:	00 00 00 
    1020:	24 30 04    	goto      0x3024 <__DefaultInterrupt>
    1022:	00 00 00 
    1024:	24 30 04    	goto      0x3024 <__DefaultInterrupt>
    1026:	00 00 00 
    1028:	24 30 04    	goto      0x3024 <__DefaultInterrupt>
    102a:	00 00 00 
    102c:	24 30 04    	goto      0x3024 <__DefaultInterrupt>
    102e:	00 00 00 
    1030:	24 30 04    	goto      0x3024 <__DefaultInterrupt>
    1032:	00 00 00 
    1034:	24 30 04    	goto      0x3024 <__DefaultInterrupt>
    1036:	00 00 00 
    1038:	24 30 04    	goto      0x3024 <__DefaultInterrupt>
    103a:	00 00 00 
    103c:	24 30 04    	goto      0x3024 <__DefaultInterrupt>
    103e:	00 00 00 
    1040:	74 1e 04    	goto      0x1e74 <__U1RXInterrupt>
    1042:	00 00 00 
    1044:	4e 1e 04    	goto      0x1e4e <__U1TXInterrupt>
    1046:	00 00 00 
    1048:	24 30 04    	goto      0x3024 <__DefaultInterrupt>
    104a:	00 00 00 
    104c:	24 30 04    	goto      0x3024 <__DefaultInterrupt>
    104e:	00 00 00 
    1050:	24 30 04    	goto      0x3024 <__DefaultInterrupt>
    1052:	00 00 00 
    1054:	24 30 04    	goto      0x3024 <__DefaultInterrupt>
    1056:	00 00 00 
    1058:	24 30 04    	goto      0x3024 <__DefaultInterrupt>
    105a:	00 00 00 
    105c:	24 30 04    	goto      0x3024 <__DefaultInterrupt>
    105e:	00 00 00 
    1060:	24 30 04    	goto      0x3024 <__DefaultInterrupt>
    1062:	00 00 00 
    1064:	24 30 04    	goto      0x3024 <__DefaultInterrupt>
    1066:	00 00 00 
    1068:	24 30 04    	goto      0x3024 <__DefaultInterrupt>
    106a:	00 00 00 
    106c:	24 30 04    	goto      0x3024 <__DefaultInterrupt>
    106e:	00 00 00 
    1070:	24 30 04    	goto      0x3024 <__DefaultInterrupt>
    1072:	00 00 00 
    1074:	24 30 04    	goto      0x3024 <__DefaultInterrupt>
    1076:	00 00 00 
    1078:	24 30 04    	goto      0x3024 <__DefaultInterrupt>
    107a:	00 00 00 
    107c:	c0 1e 04    	goto      0x1ec0 <__U2RXInterrupt>
    107e:	00 00 00 
    1080:	9a 1e 04    	goto      0x1e9a <__U2TXInterrupt>
    1082:	00 00 00 
    1084:	24 30 04    	goto      0x3024 <__DefaultInterrupt>
    1086:	00 00 00 
    1088:	24 30 04    	goto      0x3024 <__DefaultInterrupt>
    108a:	00 00 00 
    108c:	24 30 04    	goto      0x3024 <__DefaultInterrupt>
    108e:	00 00 00 
    1090:	24 30 04    	goto      0x3024 <__DefaultInterrupt>
    1092:	00 00 00 
    1094:	24 30 04    	goto      0x3024 <__DefaultInterrupt>
    1096:	00 00 00 
    1098:	24 30 04    	goto      0x3024 <__DefaultInterrupt>
    109a:	00 00 00 
    109c:	24 30 04    	goto      0x3024 <__DefaultInterrupt>
    109e:	00 00 00 
    10a0:	24 30 04    	goto      0x3024 <__DefaultInterrupt>
    10a2:	00 00 00 
    10a4:	24 30 04    	goto      0x3024 <__DefaultInterrupt>
    10a6:	00 00 00 
    10a8:	24 30 04    	goto      0x3024 <__DefaultInterrupt>
    10aa:	00 00 00 
    10ac:	24 30 04    	goto      0x3024 <__DefaultInterrupt>
    10ae:	00 00 00 
    10b0:	24 30 04    	goto      0x3024 <__DefaultInterrupt>
    10b2:	00 00 00 
    10b4:	24 30 04    	goto      0x3024 <__DefaultInterrupt>
    10b6:	00 00 00 
    10b8:	24 30 04    	goto      0x3024 <__DefaultInterrupt>
    10ba:	00 00 00 
    10bc:	24 30 04    	goto      0x3024 <__DefaultInterrupt>
    10be:	00 00 00 
    10c0:	24 30 04    	goto      0x3024 <__DefaultInterrupt>
    10c2:	00 00 00 
    10c4:	24 30 04    	goto      0x3024 <__DefaultInterrupt>
    10c6:	00 00 00 
    10c8:	24 30 04    	goto      0x3024 <__DefaultInterrupt>
    10ca:	00 00 00 
    10cc:	24 30 04    	goto      0x3024 <__DefaultInterrupt>
    10ce:	00 00 00 
    10d0:	24 30 04    	goto      0x3024 <__DefaultInterrupt>
    10d2:	00 00 00 
    10d4:	24 30 04    	goto      0x3024 <__DefaultInterrupt>
    10d6:	00 00 00 
    10d8:	24 30 04    	goto      0x3024 <__DefaultInterrupt>
    10da:	00 00 00 
    10dc:	0c 1f 04    	goto      0x1f0c <__U3RXInterrupt>
    10de:	00 00 00 
    10e0:	e6 1e 04    	goto      0x1ee6 <__U3TXInterrupt>
    10e2:	00 00 00 
    10e4:	24 30 04    	goto      0x3024 <__DefaultInterrupt>
    10e6:	00 00 00 
    10e8:	24 30 04    	goto      0x3024 <__DefaultInterrupt>
    10ea:	00 00 00 
    10ec:	24 30 04    	goto      0x3024 <__DefaultInterrupt>
    10ee:	00 00 00 
    10f0:	24 30 04    	goto      0x3024 <__DefaultInterrupt>
    10f2:	00 00 00 
    10f4:	58 1f 04    	goto      0x1f58 <__U4RXInterrupt>
    10f6:	00 00 00 
    10f8:	32 1f 04    	goto      0x1f32 <__U4TXInterrupt>
    10fa:	00 00 00 
    10fc:	24 30 04    	goto      0x3024 <__DefaultInterrupt>
    10fe:	00 00 00 
    1100:	24 30 04    	goto      0x3024 <__DefaultInterrupt>
    1102:	00 00 00 
    1104:	24 30 04    	goto      0x3024 <__DefaultInterrupt>
    1106:	00 00 00 
    1108:	24 30 04    	goto      0x3024 <__DefaultInterrupt>
    110a:	00 00 00 

0000110c <__DEFAULT_VECTOR>:
    110c:	24 30 04    	goto      0x3024 <__DefaultInterrupt>
    110e:	00 00 00 
Disassembly of section .ivt:

00000004 <.ivt>:
   4:	04 10 00    	nop       
   6:	08 10 00    	nop       
   8:	0c 10 00    	nop       
   a:	10 10 00    	nop       
   c:	14 10 00    	nop       
   e:	0c 11 00    	nop       
  10:	0c 11 00    	nop       
  12:	0c 11 00    	nop       
  14:	18 10 00    	nop       
  16:	1c 10 00    	nop       
  18:	20 10 00    	nop       
  1a:	24 10 00    	nop       
  1c:	0c 11 00    	nop       
  1e:	28 10 00    	nop       
  20:	2c 10 00    	nop       
  22:	30 10 00    	nop       
  24:	34 10 00    	nop       
  26:	38 10 00    	nop       
  28:	3c 10 00    	nop       
  2a:	40 10 00    	nop       
  2c:	44 10 00    	nop       
  2e:	48 10 00    	nop       
  30:	0c 11 00    	nop       
  32:	0c 11 00    	nop       
  34:	4c 10 00    	nop       
  36:	50 10 00    	nop       
  38:	54 10 00    	nop       
  3a:	58 10 00    	nop       
  3c:	5c 10 00    	nop       
  3e:	0c 11 00    	nop       
  40:	60 10 00    	nop       
  42:	64 10 00    	nop       
  44:	0c 11 00    	nop       
  46:	68 10 00    	nop       
  48:	6c 10 00    	nop       
  4a:	70 10 00    	nop       
  4c:	74 10 00    	nop       
  4e:	78 10 00    	nop       
  50:	7c 10 00    	nop       
  52:	80 10 00    	nop       
  54:	84 10 00    	nop       
  56:	88 10 00    	nop       
  58:	0c 11 00    	nop       
  5a:	0c 11 00    	nop       
  5c:	0c 11 00    	nop       
  5e:	8c 10 00    	nop       
  60:	90 10 00    	nop       
  62:	94 10 00    	nop       
  64:	98 10 00    	nop       
  66:	9c 10 00    	nop       
  68:	a0 10 00    	nop       
  6a:	a4 10 00    	nop       
  6c:	a8 10 00    	nop       
  6e:	ac 10 00    	nop       
  70:	0c 11 00    	nop       
  72:	0c 11 00    	nop       
  74:	0c 11 00    	nop       
  76:	b0 10 00    	nop       
  78:	b4 10 00    	nop       
  7a:	0c 11 00    	nop       
  7c:	0c 11 00    	nop       
  7e:	b8 10 00    	nop       
  80:	bc 10 00    	nop       
  82:	0c 11 00    	nop       
  84:	0c 11 00    	nop       
  86:	0c 11 00    	nop       
  88:	0c 11 00    	nop       
  8a:	0c 11 00    	nop       
  8c:	0c 11 00    	nop       
  8e:	0c 11 00    	nop       
  90:	c0 10 00    	nop       
  92:	0c 11 00    	nop       
  94:	0c 11 00    	nop       
  96:	c4 10 00    	nop       
  98:	c8 10 00    	nop       
  9a:	cc 10 00    	nop       
  9c:	0c 11 00    	nop       
  9e:	0c 11 00    	nop       
  a0:	0c 11 00    	nop       
  a2:	0c 11 00    	nop       
  a4:	d0 10 00    	nop       
  a6:	0c 11 00    	nop       
  a8:	0c 11 00    	nop       
  aa:	0c 11 00    	nop       
  ac:	0c 11 00    	nop       
  ae:	d4 10 00    	nop       
  b0:	0c 11 00    	nop       
  b2:	0c 11 00    	nop       
  b4:	0c 11 00    	nop       
  b6:	d8 10 00    	nop       
  b8:	dc 10 00    	nop       
  ba:	e0 10 00    	nop       
  bc:	e4 10 00    	nop       
  be:	e8 10 00    	nop       
  c0:	ec 10 00    	nop       
  c2:	f0 10 00    	nop       
  c4:	f4 10 00    	nop       
  c6:	f8 10 00    	nop       
  c8:	fc 10 00    	nop       
  ca:	00 11 00    	nop       
  cc:	04 11 00    	nop       
  ce:	08 11 00    	nop       
  d0:	0c 11 00    	nop       
  d2:	0c 11 00    	nop       
  d4:	0c 11 00    	nop       
  d6:	0c 11 00    	nop       
  d8:	0c 11 00    	nop       
  da:	0c 11 00    	nop       
  dc:	0c 11 00    	nop       
  de:	0c 11 00    	nop       
  e0:	0c 11 00    	nop       
  e2:	0c 11 00    	nop       
  e4:	0c 11 00    	nop       
  e6:	0c 11 00    	nop       
  e8:	0c 11 00    	nop       
  ea:	0c 11 00    	nop       
  ec:	0c 11 00    	nop       
  ee:	0c 11 00    	nop       
  f0:	0c 11 00    	nop       
  f2:	0c 11 00    	nop       
  f4:	0c 11 00    	nop       
  f6:	0c 11 00    	nop       
  f8:	0c 11 00    	nop       
  fa:	0c 11 00    	nop       
  fc:	0c 11 00    	nop       
  fe:	0c 11 00    	nop       
Disassembly of section .const:

00009c0a <.LC0>:
    9c0a:	48 65       	.word 0x6548
    9c0c:	6c 6c       	.word 0x6c6c
    9c0e:	6f 20       	.word 0x206f
    9c10:	57 6f       	.word 0x6f57
    9c12:	72 6c       	.word 0x6c72
    9c14:	64 21       	.word 0x2164
    9c16:	00 57       	.word 0x5700

00009c17 <.LC1>:
    9c17:	00 00       	.word 0
    9c19:	00 00       	.word 0
    9c1b:	00 00       	.word 0
    9c1d:	00 00       	.word 0
    9c1f:	00 00       	.word 0
    9c21:	00 00       	.word 0
    9c23:	00 00       	.word 0
    9c25:	00 00       	.word 0
    9c27:	00 00       	.word 0
    9c29:	00 00       	.word 0

00009c2b <.LC2>:
    9c2b:	00 00       	.word 0
    9c2d:	00 00       	.word 0
    9c2f:	00 00       	.word 0
    9c31:	00 00       	.word 0
    9c33:	00 00       	.word 0
	...

00009c36 <.LC3>:
    9c36:	54 79       	.word 0x7954
    9c38:	70 65       	.word 0x6570
    9c3a:	20 73       	.word 0x7320
    9c3c:	6f 6d       	.word 0x6d6f
    9c3e:	65 74       	.word 0x7465
    9c40:	68 69       	.word 0x6968
    9c42:	6e 67       	.word 0x676e
    9c44:	20 61       	.word 0x6120
    9c46:	74 20       	.word 0x2074
    9c48:	74 68       	.word 0x6874
    9c4a:	65 20       	.word 0x2065
    9c4c:	70 72       	.word 0x7270
    9c4e:	6f 6d       	.word 0x6d6f
    9c50:	70 74       	.word 0x7470
    9c52:	2e 0a       	.word 0xa2e
    9c54:	00 3e       	.word 0x3e00

00009c55 <.LC4>:
    9c55:	00 00       	.word 0
    9c57:	00 00       	.word 0

00009c59 <.LC5>:
    9c59:	00 00       	.word 0
    9c5b:	00 00       	.word 0
    9c5d:	00 00       	.word 0
    9c5f:	00 00       	.word 0
    9c61:	00 00       	.word 0
    9c63:	00 00       	.word 0
    9c65:	00 00       	.word 0
    9c67:	00 00       	.word 0
	...
Disassembly of section .text:

00001c6a <___putc_nobuffer>:
    1c6a:	04 00 fa    	lnk       #0x4
    1c6c:	00 0f 78    	mov.w     w0, [w14]
    1c6e:	21 47 98    	mov.b     w1, [w14+2]

00001c70 <.L2>:
    1c70:	1e 00 78    	mov.w     [w14], w0
    1c72:	10 00 90    	mov.w     [w0+2], w0
    1c74:	10 00 78    	mov.w     [w0], w0
    1c76:	49 00 de    	lsr.w     w0, #0x9, w0
    1c78:	61 00 60    	and.w     w0, #0x1, w0
    1c7a:	00 04 e0    	cp0.b     w0
    1c7c:	f9 ff 3a    	bra       NZ, 0x1c70 <.L2>
    1c7e:	1e 00 78    	mov.w     [w14], w0
    1c80:	a0 00 90    	mov.w     [w0+4], w1
    1c82:	2e 40 90    	mov.b     [w14+2], w0
    1c84:	00 80 fb    	ze        w0, w0
    1c86:	80 08 78    	mov.w     w0, [w1]
    1c88:	00 80 fa    	ulnk      
    1c8a:	00 00 06    	return    

00001c8c <___getc_nobuffer>:
    1c8c:	04 00 fa    	lnk       #0x4
    1c8e:	00 0f 78    	mov.w     w0, [w14]

00001c90 <.L6>:
    1c90:	1e 00 78    	mov.w     [w14], w0
    1c92:	10 00 90    	mov.w     [w0+2], w0
    1c94:	10 00 78    	mov.w     [w0], w0
    1c96:	61 00 60    	and.w     w0, #0x1, w0
    1c98:	00 04 e0    	cp0.b     w0
    1c9a:	03 00 32    	bra       Z, 0x1ca2 <.L7>
    1c9c:	00 40 eb    	clr.b     w0
    1c9e:	20 47 98    	mov.b     w0, [w14+2]
    1ca0:	02 00 37    	bra       0x1ca6 <.L9>

00001ca2 <.L7>:
    1ca2:	10 c0 b3    	mov.b     #0x1, w0
    1ca4:	20 47 98    	mov.b     w0, [w14+2]

00001ca6 <.L9>:
    1ca6:	2e 40 90    	mov.b     [w14+2], w0
    1ca8:	00 04 e0    	cp0.b     w0
    1caa:	f2 ff 3a    	bra       NZ, 0x1c90 <.L6>
    1cac:	1e 00 78    	mov.w     [w14], w0
    1cae:	30 00 90    	mov.w     [w0+6], w0
    1cb0:	10 00 78    	mov.w     [w0], w0
    1cb2:	00 80 fb    	ze        w0, w0
    1cb4:	00 80 fa    	ulnk      
    1cb6:	00 00 06    	return    

00001cb8 <___putc_buffer>:
    1cb8:	04 00 fa    	lnk       #0x4
    1cba:	00 0f 78    	mov.w     w0, [w14]
    1cbc:	21 47 98    	mov.b     w1, [w14+2]

00001cbe <.L13>:
    1cbe:	1e 00 78    	mov.w     [w14], w0
    1cc0:	d0 10 90    	mov.w     [w0+42], w1
    1cc2:	1e 00 78    	mov.w     [w14], w0
    1cc4:	20 10 90    	mov.w     [w0+36], w0
    1cc6:	80 8f 50    	sub.w     w1, w0, [w15]
    1cc8:	fa ff 32    	bra       Z, 0x1cbe <.L13>
    1cca:	1e 00 78    	mov.w     [w14], w0
    1ccc:	90 10 90    	mov.w     [w0+34], w1
    1cce:	1e 00 78    	mov.w     [w14], w0
    1cd0:	40 10 90    	mov.w     [w0+40], w0
    1cd2:	00 80 40    	add.w     w1, w0, w0
    1cd4:	ae 40 90    	mov.b     [w14+2], w1
    1cd6:	01 48 78    	mov.b     w1, [w0]
    1cd8:	1e 00 78    	mov.w     [w14], w0
    1cda:	40 10 90    	mov.w     [w0+40], w0
    1cdc:	80 00 e8    	inc.w     w0, w1
    1cde:	1e 00 78    	mov.w     [w14], w0
    1ce0:	20 11 90    	mov.w     [w0+36], w2
    1ce2:	11 00 09    	repeat    #0x11
    1ce4:	82 80 d8    	div.uw    w1, w2
    1ce6:	80 00 fd    	exch      w0, w1
    1ce8:	80 00 78    	mov.w     w0, w1
    1cea:	1e 00 78    	mov.w     [w14], w0
    1cec:	41 10 98    	mov.w     w1, [w0+40]
    1cee:	1e 00 78    	mov.w     [w14], w0
    1cf0:	50 10 90    	mov.w     [w0+42], w0
    1cf2:	80 00 e8    	inc.w     w0, w1
    1cf4:	1e 00 78    	mov.w     [w14], w0
    1cf6:	51 10 98    	mov.w     w1, [w0+42]
    1cf8:	1e 00 78    	mov.w     [w14], w0
    1cfa:	d0 10 90    	mov.w     [w0+42], w1
    1cfc:	1e 00 78    	mov.w     [w14], w0
    1cfe:	30 18 90    	mov.w     [w0+54], w0
    1d00:	80 8f 50    	sub.w     w1, w0, [w15]
    1d02:	08 00 39    	bra       NC, 0x1d14 <.L17>
    1d04:	1e 00 78    	mov.w     [w14], w0
    1d06:	10 01 90    	mov.w     [w0+2], w2
    1d08:	1e 00 78    	mov.w     [w14], w0
    1d0a:	10 00 90    	mov.w     [w0+2], w0
    1d0c:	90 00 78    	mov.w     [w0], w1
    1d0e:	00 40 20    	mov.w     #0x400, w0
    1d10:	00 80 70    	ior.w     w1, w0, w0
    1d12:	00 09 78    	mov.w     w0, [w2]

00001d14 <.L17>:
    1d14:	00 80 fa    	ulnk      
    1d16:	00 00 06    	return    

00001d18 <___serviceTxInterrupt>:
    1d18:	04 00 fa    	lnk       #0x4
    1d1a:	10 07 98    	mov.w     w0, [w14+2]
    1d1c:	1e 00 90    	mov.w     [w14+2], w0
    1d1e:	d0 01 90    	mov.w     [w0+10], w3
    1d20:	1e 00 90    	mov.w     [w14+2], w0
    1d22:	50 00 90    	mov.w     [w0+10], w0
    1d24:	10 01 78    	mov.w     [w0], w2
    1d26:	1e 00 90    	mov.w     [w14+2], w0
    1d28:	60 48 90    	mov.b     [w0+14], w0
    1d2a:	80 80 fb    	ze        w0, w1
    1d2c:	10 00 20    	mov.w     #0x1, w0
    1d2e:	01 00 dd    	sl.w      w0, w1, w0
    1d30:	00 80 ea    	com.w     w0, w0
    1d32:	00 00 61    	and.w     w2, w0, w0
    1d34:	80 09 78    	mov.w     w0, [w3]
    1d36:	1e 00 90    	mov.w     [w14+2], w0
    1d38:	50 10 90    	mov.w     [w0+42], w0
    1d3a:	00 00 e0    	cp0.w     w0
    1d3c:	23 00 3a    	bra       NZ, 0x1d84 <.L21>
    1d3e:	1e 00 90    	mov.w     [w14+2], w0
    1d40:	10 01 90    	mov.w     [w0+2], w2
    1d42:	1e 00 90    	mov.w     [w14+2], w0
    1d44:	10 00 90    	mov.w     [w0+2], w0
    1d46:	90 00 78    	mov.w     [w0], w1
    1d48:	f0 bf 2f    	mov.w     #0xfbff, w0
    1d4a:	00 80 60    	and.w     w1, w0, w0
    1d4c:	00 09 78    	mov.w     w0, [w2]
    1d4e:	1a 00 37    	bra       0x1d84 <.L21>

00001d50 <.L22>:
    1d50:	1e 00 90    	mov.w     [w14+2], w0
    1d52:	90 10 90    	mov.w     [w0+34], w1
    1d54:	1e 00 90    	mov.w     [w14+2], w0
    1d56:	30 10 90    	mov.w     [w0+38], w0
    1d58:	00 80 40    	add.w     w1, w0, w0
    1d5a:	10 4f 78    	mov.b     [w0], [w14]
    1d5c:	1e 00 90    	mov.w     [w14+2], w0
    1d5e:	30 10 90    	mov.w     [w0+38], w0
    1d60:	80 00 e8    	inc.w     w0, w1
    1d62:	1e 00 90    	mov.w     [w14+2], w0
    1d64:	20 11 90    	mov.w     [w0+36], w2
    1d66:	11 00 09    	repeat    #0x11
    1d68:	82 80 d8    	div.uw    w1, w2
    1d6a:	80 00 fd    	exch      w0, w1
    1d6c:	80 00 78    	mov.w     w0, w1
    1d6e:	1e 00 90    	mov.w     [w14+2], w0
    1d70:	31 10 98    	mov.w     w1, [w0+38]
    1d72:	1e 00 90    	mov.w     [w14+2], w0
    1d74:	50 10 90    	mov.w     [w0+42], w0
    1d76:	80 00 e9    	dec.w     w0, w1
    1d78:	1e 00 90    	mov.w     [w14+2], w0
    1d7a:	51 10 98    	mov.w     w1, [w0+42]
    1d7c:	1e 00 90    	mov.w     [w14+2], w0
    1d7e:	a0 00 90    	mov.w     [w0+4], w1
    1d80:	1e 80 fb    	ze        [w14], w0
    1d82:	80 08 78    	mov.w     w0, [w1]

00001d84 <.L21>:
    1d84:	1e 00 90    	mov.w     [w14+2], w0
    1d86:	10 00 90    	mov.w     [w0+2], w0
    1d88:	10 00 78    	mov.w     [w0], w0
    1d8a:	49 00 de    	lsr.w     w0, #0x9, w0
    1d8c:	00 00 a2    	btg.w     w0, #0x0
    1d8e:	61 00 60    	and.w     w0, #0x1, w0
    1d90:	00 04 a2    	btg.b     w0, #0x0
    1d92:	00 04 e0    	cp0.b     w0
    1d94:	04 00 3a    	bra       NZ, 0x1d9e <.L25>
    1d96:	1e 00 90    	mov.w     [w14+2], w0
    1d98:	50 10 90    	mov.w     [w0+42], w0
    1d9a:	00 00 e0    	cp0.w     w0
    1d9c:	d9 ff 3a    	bra       NZ, 0x1d50 <.L22>

00001d9e <.L25>:
    1d9e:	00 80 fa    	ulnk      
    1da0:	00 00 06    	return    

00001da2 <___getc_buffer>:
    1da2:	04 00 fa    	lnk       #0x4
    1da4:	10 07 98    	mov.w     w0, [w14+2]

00001da6 <.L27>:
    1da6:	1e 00 90    	mov.w     [w14+2], w0
    1da8:	20 18 90    	mov.w     [w0+52], w0
    1daa:	00 00 e0    	cp0.w     w0
    1dac:	fc ff 32    	bra       Z, 0x1da6 <.L27>
    1dae:	1e 00 90    	mov.w     [w14+2], w0
    1db0:	e0 10 90    	mov.w     [w0+44], w1
    1db2:	1e 00 90    	mov.w     [w14+2], w0
    1db4:	00 18 90    	mov.w     [w0+48], w0
    1db6:	00 80 40    	add.w     w1, w0, w0
    1db8:	10 4f 78    	mov.b     [w0], [w14]
    1dba:	1e 00 90    	mov.w     [w14+2], w0
    1dbc:	00 18 90    	mov.w     [w0+48], w0
    1dbe:	80 00 e8    	inc.w     w0, w1
    1dc0:	1e 00 90    	mov.w     [w14+2], w0
    1dc2:	70 11 90    	mov.w     [w0+46], w2
    1dc4:	11 00 09    	repeat    #0x11
    1dc6:	82 80 d8    	div.uw    w1, w2
    1dc8:	80 00 fd    	exch      w0, w1
    1dca:	80 00 78    	mov.w     w0, w1
    1dcc:	1e 00 90    	mov.w     [w14+2], w0
    1dce:	01 18 98    	mov.w     w1, [w0+48]
    1dd0:	1e 00 90    	mov.w     [w14+2], w0
    1dd2:	20 18 90    	mov.w     [w0+52], w0
    1dd4:	80 00 e9    	dec.w     w0, w1
    1dd6:	1e 00 90    	mov.w     [w14+2], w0
    1dd8:	21 18 98    	mov.w     w1, [w0+52]
    1dda:	1e 80 fb    	ze        [w14], w0
    1ddc:	00 80 fa    	ulnk      
    1dde:	00 00 06    	return    

00001de0 <___serviceRxInterrupt>:
    1de0:	02 00 fa    	lnk       #0x2
    1de2:	00 0f 78    	mov.w     w0, [w14]
    1de4:	1e 00 78    	mov.w     [w14], w0
    1de6:	d0 01 90    	mov.w     [w0+10], w3
    1de8:	1e 00 78    	mov.w     [w14], w0
    1dea:	50 00 90    	mov.w     [w0+10], w0
    1dec:	10 01 78    	mov.w     [w0], w2
    1dee:	1e 00 78    	mov.w     [w14], w0
    1df0:	70 48 90    	mov.b     [w0+15], w0
    1df2:	80 80 fb    	ze        w0, w1
    1df4:	10 00 20    	mov.w     #0x1, w0
    1df6:	01 00 dd    	sl.w      w0, w1, w0
    1df8:	00 80 ea    	com.w     w0, w0
    1dfa:	00 00 61    	and.w     w2, w0, w0
    1dfc:	80 09 78    	mov.w     w0, [w3]
    1dfe:	19 00 37    	bra       0x1e32 <.L31>

00001e00 <.L32>:
    1e00:	1e 00 78    	mov.w     [w14], w0
    1e02:	e0 10 90    	mov.w     [w0+44], w1
    1e04:	1e 00 78    	mov.w     [w14], w0
    1e06:	10 18 90    	mov.w     [w0+50], w0
    1e08:	80 80 40    	add.w     w1, w0, w1
    1e0a:	1e 00 78    	mov.w     [w14], w0
    1e0c:	30 00 90    	mov.w     [w0+6], w0
    1e0e:	10 00 78    	mov.w     [w0], w0
    1e10:	80 48 78    	mov.b     w0, [w1]
    1e12:	1e 00 78    	mov.w     [w14], w0
    1e14:	10 18 90    	mov.w     [w0+50], w0
    1e16:	80 00 e8    	inc.w     w0, w1
    1e18:	1e 00 78    	mov.w     [w14], w0
    1e1a:	70 11 90    	mov.w     [w0+46], w2
    1e1c:	11 00 09    	repeat    #0x11
    1e1e:	82 80 d8    	div.uw    w1, w2
    1e20:	80 00 fd    	exch      w0, w1
    1e22:	80 00 78    	mov.w     w0, w1
    1e24:	1e 00 78    	mov.w     [w14], w0
    1e26:	11 18 98    	mov.w     w1, [w0+50]
    1e28:	1e 00 78    	mov.w     [w14], w0
    1e2a:	20 18 90    	mov.w     [w0+52], w0
    1e2c:	80 00 e8    	inc.w     w0, w1
    1e2e:	1e 00 78    	mov.w     [w14], w0
    1e30:	21 18 98    	mov.w     w1, [w0+52]

00001e32 <.L31>:
    1e32:	1e 00 78    	mov.w     [w14], w0
    1e34:	10 00 90    	mov.w     [w0+2], w0
    1e36:	10 00 78    	mov.w     [w0], w0
    1e38:	61 00 60    	and.w     w0, #0x1, w0
    1e3a:	00 04 e0    	cp0.b     w0
    1e3c:	06 00 32    	bra       Z, 0x1e4a <.L35>
    1e3e:	1e 00 78    	mov.w     [w14], w0
    1e40:	a0 18 90    	mov.w     [w0+52], w1
    1e42:	1e 00 78    	mov.w     [w14], w0
    1e44:	70 10 90    	mov.w     [w0+46], w0
    1e46:	80 8f 50    	sub.w     w1, w0, [w15]
    1e48:	db ff 3a    	bra       NZ, 0x1e00 <.L32>

00001e4a <.L35>:
    1e4a:	00 80 fa    	ulnk      
    1e4c:	00 00 06    	return    

00001e4e <__U1TXInterrupt>:
    1e4e:	36 00 f8    	push      0x36
    1e50:	80 9f be    	mov.d     w0, [w15++]
    1e52:	82 9f be    	mov.d     w2, [w15++]
    1e54:	84 9f be    	mov.d     w4, [w15++]
    1e56:	86 9f be    	mov.d     w6, [w15++]
    1e58:	32 00 f8    	push      0x32
    1e5a:	00 20 20    	mov.w     #0x200, w0
    1e5c:	90 01 88    	mov.w     w0, 0x32
    1e5e:	00 00 fa    	lnk       #0x0
    1e60:	80 9b 20    	mov.w     #0x9b8, w0
    1e62:	5a ff 07    	rcall     0x1d18 <___serviceTxInterrupt>
    1e64:	00 80 fa    	ulnk      
    1e66:	32 00 f9    	pop       0x32
    1e68:	4f 03 be    	mov.d     [--w15], w6
    1e6a:	4f 02 be    	mov.d     [--w15], w4
    1e6c:	4f 01 be    	mov.d     [--w15], w2
    1e6e:	4f 00 be    	mov.d     [--w15], w0
    1e70:	36 00 f9    	pop       0x36
    1e72:	00 40 06    	retfie    

00001e74 <__U1RXInterrupt>:
    1e74:	36 00 f8    	push      0x36
    1e76:	80 9f be    	mov.d     w0, [w15++]
    1e78:	82 9f be    	mov.d     w2, [w15++]
    1e7a:	84 9f be    	mov.d     w4, [w15++]
    1e7c:	86 9f be    	mov.d     w6, [w15++]
    1e7e:	32 00 f8    	push      0x32
    1e80:	00 20 20    	mov.w     #0x200, w0
    1e82:	90 01 88    	mov.w     w0, 0x32
    1e84:	00 00 fa    	lnk       #0x0
    1e86:	80 9b 20    	mov.w     #0x9b8, w0
    1e88:	ab ff 07    	rcall     0x1de0 <___serviceRxInterrupt>
    1e8a:	00 80 fa    	ulnk      
    1e8c:	32 00 f9    	pop       0x32
    1e8e:	4f 03 be    	mov.d     [--w15], w6
    1e90:	4f 02 be    	mov.d     [--w15], w4
    1e92:	4f 01 be    	mov.d     [--w15], w2
    1e94:	4f 00 be    	mov.d     [--w15], w0
    1e96:	36 00 f9    	pop       0x36
    1e98:	00 40 06    	retfie    

00001e9a <__U2TXInterrupt>:
    1e9a:	36 00 f8    	push      0x36
    1e9c:	80 9f be    	mov.d     w0, [w15++]
    1e9e:	82 9f be    	mov.d     w2, [w15++]
    1ea0:	84 9f be    	mov.d     w4, [w15++]
    1ea2:	86 9f be    	mov.d     w6, [w15++]
    1ea4:	32 00 f8    	push      0x32
    1ea6:	00 20 20    	mov.w     #0x200, w0
    1ea8:	90 01 88    	mov.w     w0, 0x32
    1eaa:	00 00 fa    	lnk       #0x0
    1eac:	40 9f 20    	mov.w     #0x9f4, w0
    1eae:	34 ff 07    	rcall     0x1d18 <___serviceTxInterrupt>
    1eb0:	00 80 fa    	ulnk      
    1eb2:	32 00 f9    	pop       0x32
    1eb4:	4f 03 be    	mov.d     [--w15], w6
    1eb6:	4f 02 be    	mov.d     [--w15], w4
    1eb8:	4f 01 be    	mov.d     [--w15], w2
    1eba:	4f 00 be    	mov.d     [--w15], w0
    1ebc:	36 00 f9    	pop       0x36
    1ebe:	00 40 06    	retfie    

00001ec0 <__U2RXInterrupt>:
    1ec0:	36 00 f8    	push      0x36
    1ec2:	80 9f be    	mov.d     w0, [w15++]
    1ec4:	82 9f be    	mov.d     w2, [w15++]
    1ec6:	84 9f be    	mov.d     w4, [w15++]
    1ec8:	86 9f be    	mov.d     w6, [w15++]
    1eca:	32 00 f8    	push      0x32
    1ecc:	00 20 20    	mov.w     #0x200, w0
    1ece:	90 01 88    	mov.w     w0, 0x32
    1ed0:	00 00 fa    	lnk       #0x0
    1ed2:	40 9f 20    	mov.w     #0x9f4, w0
    1ed4:	85 ff 07    	rcall     0x1de0 <___serviceRxInterrupt>
    1ed6:	00 80 fa    	ulnk      
    1ed8:	32 00 f9    	pop       0x32
    1eda:	4f 03 be    	mov.d     [--w15], w6
    1edc:	4f 02 be    	mov.d     [--w15], w4
    1ede:	4f 01 be    	mov.d     [--w15], w2
    1ee0:	4f 00 be    	mov.d     [--w15], w0
    1ee2:	36 00 f9    	pop       0x36
    1ee4:	00 40 06    	retfie    

00001ee6 <__U3TXInterrupt>:
    1ee6:	36 00 f8    	push      0x36
    1ee8:	80 9f be    	mov.d     w0, [w15++]
    1eea:	82 9f be    	mov.d     w2, [w15++]
    1eec:	84 9f be    	mov.d     w4, [w15++]
    1eee:	86 9f be    	mov.d     w6, [w15++]
    1ef0:	32 00 f8    	push      0x32
    1ef2:	00 20 20    	mov.w     #0x200, w0
    1ef4:	90 01 88    	mov.w     w0, 0x32
    1ef6:	00 00 fa    	lnk       #0x0
    1ef8:	00 a3 20    	mov.w     #0xa30, w0
    1efa:	0e ff 07    	rcall     0x1d18 <___serviceTxInterrupt>
    1efc:	00 80 fa    	ulnk      
    1efe:	32 00 f9    	pop       0x32
    1f00:	4f 03 be    	mov.d     [--w15], w6
    1f02:	4f 02 be    	mov.d     [--w15], w4
    1f04:	4f 01 be    	mov.d     [--w15], w2
    1f06:	4f 00 be    	mov.d     [--w15], w0
    1f08:	36 00 f9    	pop       0x36
    1f0a:	00 40 06    	retfie    

00001f0c <__U3RXInterrupt>:
    1f0c:	36 00 f8    	push      0x36
    1f0e:	80 9f be    	mov.d     w0, [w15++]
    1f10:	82 9f be    	mov.d     w2, [w15++]
    1f12:	84 9f be    	mov.d     w4, [w15++]
    1f14:	86 9f be    	mov.d     w6, [w15++]
    1f16:	32 00 f8    	push      0x32
    1f18:	00 20 20    	mov.w     #0x200, w0
    1f1a:	90 01 88    	mov.w     w0, 0x32
    1f1c:	00 00 fa    	lnk       #0x0
    1f1e:	00 a3 20    	mov.w     #0xa30, w0
    1f20:	5f ff 07    	rcall     0x1de0 <___serviceRxInterrupt>
    1f22:	00 80 fa    	ulnk      
    1f24:	32 00 f9    	pop       0x32
    1f26:	4f 03 be    	mov.d     [--w15], w6
    1f28:	4f 02 be    	mov.d     [--w15], w4
    1f2a:	4f 01 be    	mov.d     [--w15], w2
    1f2c:	4f 00 be    	mov.d     [--w15], w0
    1f2e:	36 00 f9    	pop       0x36
    1f30:	00 40 06    	retfie    

00001f32 <__U4TXInterrupt>:
    1f32:	36 00 f8    	push      0x36
    1f34:	80 9f be    	mov.d     w0, [w15++]
    1f36:	82 9f be    	mov.d     w2, [w15++]
    1f38:	84 9f be    	mov.d     w4, [w15++]
    1f3a:	86 9f be    	mov.d     w6, [w15++]
    1f3c:	32 00 f8    	push      0x32
    1f3e:	00 20 20    	mov.w     #0x200, w0
    1f40:	90 01 88    	mov.w     w0, 0x32
    1f42:	00 00 fa    	lnk       #0x0
    1f44:	c0 a6 20    	mov.w     #0xa6c, w0
    1f46:	e8 fe 07    	rcall     0x1d18 <___serviceTxInterrupt>
    1f48:	00 80 fa    	ulnk      
    1f4a:	32 00 f9    	pop       0x32
    1f4c:	4f 03 be    	mov.d     [--w15], w6
    1f4e:	4f 02 be    	mov.d     [--w15], w4
    1f50:	4f 01 be    	mov.d     [--w15], w2
    1f52:	4f 00 be    	mov.d     [--w15], w0
    1f54:	36 00 f9    	pop       0x36
    1f56:	00 40 06    	retfie    

00001f58 <__U4RXInterrupt>:
    1f58:	36 00 f8    	push      0x36
    1f5a:	80 9f be    	mov.d     w0, [w15++]
    1f5c:	82 9f be    	mov.d     w2, [w15++]
    1f5e:	84 9f be    	mov.d     w4, [w15++]
    1f60:	86 9f be    	mov.d     w6, [w15++]
    1f62:	32 00 f8    	push      0x32
    1f64:	00 20 20    	mov.w     #0x200, w0
    1f66:	90 01 88    	mov.w     w0, 0x32
    1f68:	00 00 fa    	lnk       #0x0
    1f6a:	c0 a6 20    	mov.w     #0xa6c, w0
    1f6c:	39 ff 07    	rcall     0x1de0 <___serviceRxInterrupt>
    1f6e:	00 80 fa    	ulnk      
    1f70:	32 00 f9    	pop       0x32
    1f72:	4f 03 be    	mov.d     [--w15], w6
    1f74:	4f 02 be    	mov.d     [--w15], w4
    1f76:	4f 01 be    	mov.d     [--w15], w2
    1f78:	4f 00 be    	mov.d     [--w15], w0
    1f7a:	36 00 f9    	pop       0x36
    1f7c:	00 40 06    	retfie    

00001f7e <_write>:
    1f7e:	0a 00 fa    	lnk       #0xa
    1f80:	10 07 98    	mov.w     w0, [w14+2]
    1f82:	21 07 98    	mov.w     w1, [w14+4]
    1f84:	32 07 98    	mov.w     w2, [w14+6]
    1f86:	1e 00 90    	mov.w     [w14+2], w0
    1f88:	40 07 98    	mov.w     w0, [w14+8]
    1f8a:	4e 00 90    	mov.w     [w14+8], w0
    1f8c:	00 00 e0    	cp0.w     w0
    1f8e:	26 00 35    	bra       LT, 0x1fdc <.L53>
    1f90:	4e 00 90    	mov.w     [w14+8], w0
    1f92:	e1 0f 50    	sub.w     w0, #0x1, [w15]
    1f94:	04 00 34    	bra       LE, 0x1f9e <.L54>
    1f96:	4e 00 90    	mov.w     [w14+8], w0
    1f98:	e2 0f 50    	sub.w     w0, #0x2, [w15]
    1f9a:	11 00 32    	bra       Z, 0x1fbe <.L55>
    1f9c:	1f 00 37    	bra       0x1fdc <.L53>

00001f9e <.L54>:
    1f9e:	00 00 eb    	clr.w     w0
    1fa0:	00 0f 78    	mov.w     w0, [w14]
    1fa2:	08 00 37    	bra       0x1fb4 <.L56>

00001fa4 <.L57>:
    1fa4:	2e 00 90    	mov.w     [w14+4], w0
    1fa6:	90 40 78    	mov.b     [w0], w1
    1fa8:	2e 00 90    	mov.w     [w14+4], w0
    1faa:	00 00 e8    	inc.w     w0, w0
    1fac:	20 07 98    	mov.w     w0, [w14+4]
    1fae:	40 55 80    	mov.w     0xaa8, w0
    1fb0:	57 04 07    	rcall     0x2860 <_uart_putc>
    1fb2:	1e 0f e8    	inc.w     [w14], [w14]

00001fb4 <.L56>:
    1fb4:	9e 00 78    	mov.w     [w14], w1
    1fb6:	3e 00 90    	mov.w     [w14+6], w0
    1fb8:	80 8f 50    	sub.w     w1, w0, [w15]
    1fba:	f4 ff 39    	bra       NC, 0x1fa4 <.L57>
    1fbc:	0f 00 37    	bra       0x1fdc <.L53>

00001fbe <.L55>:
    1fbe:	00 00 eb    	clr.w     w0
    1fc0:	00 0f 78    	mov.w     w0, [w14]
    1fc2:	08 00 37    	bra       0x1fd4 <.L59>

00001fc4 <.L60>:
    1fc4:	2e 00 90    	mov.w     [w14+4], w0
    1fc6:	90 40 78    	mov.b     [w0], w1
    1fc8:	2e 00 90    	mov.w     [w14+4], w0
    1fca:	00 00 e8    	inc.w     w0, w0
    1fcc:	20 07 98    	mov.w     w0, [w14+4]
    1fce:	50 55 80    	mov.w     0xaaa, w0
    1fd0:	47 04 07    	rcall     0x2860 <_uart_putc>
    1fd2:	1e 0f e8    	inc.w     [w14], [w14]

00001fd4 <.L59>:
    1fd4:	9e 00 78    	mov.w     [w14], w1
    1fd6:	3e 00 90    	mov.w     [w14+6], w0
    1fd8:	80 8f 50    	sub.w     w1, w0, [w15]
    1fda:	f4 ff 39    	bra       NC, 0x1fc4 <.L60>

00001fdc <.L53>:
    1fdc:	3e 00 90    	mov.w     [w14+6], w0
    1fde:	00 80 fa    	ulnk      
    1fe0:	00 00 06    	return    

00001fe2 <_init_uart>:
    1fe2:	00 00 fa    	lnk       #0x0
    1fe4:	88 9f be    	mov.d     w8, [w15++]
    1fe6:	8a 9f be    	mov.d     w10, [w15++]
    1fe8:	50 05 07    	rcall     0x2a8a <_init_pin>
    1fea:	40 6d 20    	mov.w     #0x6d4, w0
    1fec:	02 2f 20    	mov.w     #0x2f0, w2
    1fee:	21 2f 20    	mov.w     #0x2f2, w1
    1ff0:	80 1f 78    	mov.w     w0, [w15++]
    1ff2:	57 01 20    	mov.w     #0x15, w7
    1ff4:	86 c0 b3    	mov.b     #0x8, w6
    1ff6:	80 82 eb    	setm.w    w5
    1ff8:	64 c0 b3    	mov.b     #0x6, w4
    1ffa:	80 01 eb    	clr.w     w3
    1ffc:	c0 aa 20    	mov.w     #0xaac, w0
    1ffe:	7d 06 07    	rcall     0x2cfa <_pin_init>
    2000:	8f 87 e9    	dec2.w    w15, w15
    2002:	a0 6d 20    	mov.w     #0x6da, w0
    2004:	02 2f 20    	mov.w     #0x2f0, w2
    2006:	21 2f 20    	mov.w     #0x2f2, w1
    2008:	80 1f 78    	mov.w     w0, [w15++]
    200a:	a7 01 20    	mov.w     #0x1a, w7
    200c:	00 43 eb    	clr.b     w6
    200e:	80 82 eb    	setm.w    w5
    2010:	74 c0 b3    	mov.b     #0x7, w4
    2012:	80 01 eb    	clr.w     w3
    2014:	20 ac 20    	mov.w     #0xac2, w0
    2016:	71 06 07    	rcall     0x2cfa <_pin_init>
    2018:	8f 87 e9    	dec2.w    w15, w15
    201a:	41 6a 20    	mov.w     #0x6a4, w1
    201c:	42 6a 20    	mov.w     #0x6a4, w2
    201e:	47 09 20    	mov.w     #0x94, w7
    2020:	43 08 20    	mov.w     #0x84, w3
    2022:	84 22 20    	mov.w     #0x228, w4
    2024:	68 22 20    	mov.w     #0x226, w8
    2026:	49 22 20    	mov.w     #0x224, w9
    2028:	2a 22 20    	mov.w     #0x222, w10
    202a:	0b 22 20    	mov.w     #0x220, w11
    202c:	40 00 20    	mov.w     #0x4, w0
    202e:	80 1f 78    	mov.w     w0, [w15++]
    2030:	30 00 20    	mov.w     #0x3, w0
    2032:	80 1f 78    	mov.w     w0, [w15++]
    2034:	8f 87 e8    	inc2.w    w15, w15
    2036:	80 c0 b3    	mov.b     #0x8, w0
    2038:	e0 ff 9f    	mov.b     w0, [w15-2]
    203a:	8f 87 e8    	inc2.w    w15, w15
    203c:	00 40 eb    	clr.b     w0
    203e:	e0 ff 9f    	mov.b     w0, [w15-2]
    2040:	81 1f 78    	mov.w     w1, [w15++]
    2042:	82 1f 78    	mov.w     w2, [w15++]
    2044:	8f 87 e8    	inc2.w    w15, w15
    2046:	b0 c0 b3    	mov.b     #0xb, w0
    2048:	e0 ff 9f    	mov.b     w0, [w15-2]
    204a:	8f 87 e8    	inc2.w    w15, w15
    204c:	c0 c0 b3    	mov.b     #0xc, w0
    204e:	e0 ff 9f    	mov.b     w0, [w15-2]
    2050:	03 03 78    	mov.w     w3, w6
    2052:	84 02 78    	mov.w     w4, w5
    2054:	08 02 78    	mov.w     w8, w4
    2056:	89 01 78    	mov.w     w9, w3
    2058:	0a 01 78    	mov.w     w10, w2
    205a:	8b 00 78    	mov.w     w11, w1
    205c:	80 9b 20    	mov.w     #0x9b8, w0
    205e:	8b 00 07    	rcall     0x2176 <_uart_init>
    2060:	f0 87 57    	sub.w     w15, #0x10, w15
    2062:	61 6a 20    	mov.w     #0x6a6, w1
    2064:	62 6a 20    	mov.w     #0x6a6, w2
    2066:	67 09 20    	mov.w     #0x96, w7
    2068:	63 08 20    	mov.w     #0x86, w3
    206a:	84 23 20    	mov.w     #0x238, w4
    206c:	68 23 20    	mov.w     #0x236, w8
    206e:	49 23 20    	mov.w     #0x234, w9
    2070:	2a 23 20    	mov.w     #0x232, w10
    2072:	0b 23 20    	mov.w     #0x230, w11
    2074:	60 00 20    	mov.w     #0x6, w0
    2076:	80 1f 78    	mov.w     w0, [w15++]
    2078:	50 00 20    	mov.w     #0x5, w0
    207a:	80 1f 78    	mov.w     w0, [w15++]
    207c:	8f 87 e8    	inc2.w    w15, w15
    207e:	80 c0 b3    	mov.b     #0x8, w0
    2080:	e0 ff 9f    	mov.b     w0, [w15-2]
    2082:	8f 87 e8    	inc2.w    w15, w15
    2084:	00 40 eb    	clr.b     w0
    2086:	e0 ff 9f    	mov.b     w0, [w15-2]
    2088:	81 1f 78    	mov.w     w1, [w15++]
    208a:	82 1f 78    	mov.w     w2, [w15++]
    208c:	8f 87 e8    	inc2.w    w15, w15
    208e:	e0 c0 b3    	mov.b     #0xe, w0
    2090:	e0 ff 9f    	mov.b     w0, [w15-2]
    2092:	8f 87 e8    	inc2.w    w15, w15
    2094:	f0 c0 b3    	mov.b     #0xf, w0
    2096:	e0 ff 9f    	mov.b     w0, [w15-2]
    2098:	03 03 78    	mov.w     w3, w6
    209a:	84 02 78    	mov.w     w4, w5
    209c:	08 02 78    	mov.w     w8, w4
    209e:	89 01 78    	mov.w     w9, w3
    20a0:	0a 01 78    	mov.w     w10, w2
    20a2:	8b 00 78    	mov.w     w11, w1
    20a4:	40 9f 20    	mov.w     #0x9f4, w0
    20a6:	67 00 07    	rcall     0x2176 <_uart_init>
    20a8:	f0 87 57    	sub.w     w15, #0x10, w15
    20aa:	a1 6a 20    	mov.w     #0x6aa, w1
    20ac:	22 6a 20    	mov.w     #0x6a2, w2
    20ae:	e7 09 20    	mov.w     #0x9e, w7
    20b0:	e3 08 20    	mov.w     #0x8e, w3
    20b2:	84 25 20    	mov.w     #0x258, w4
    20b4:	68 25 20    	mov.w     #0x256, w8
    20b6:	49 25 20    	mov.w     #0x254, w9
    20b8:	2a 25 20    	mov.w     #0x252, w10
    20ba:	0b 25 20    	mov.w     #0x250, w11
    20bc:	d0 01 20    	mov.w     #0x1d, w0
    20be:	80 1f 78    	mov.w     w0, [w15++]
    20c0:	c0 01 20    	mov.w     #0x1c, w0
    20c2:	80 1f 78    	mov.w     w0, [w15++]
    20c4:	8f 87 e8    	inc2.w    w15, w15
    20c6:	80 c0 b3    	mov.b     #0x8, w0
    20c8:	e0 ff 9f    	mov.b     w0, [w15-2]
    20ca:	8f 87 e8    	inc2.w    w15, w15
    20cc:	80 c0 b3    	mov.b     #0x8, w0
    20ce:	e0 ff 9f    	mov.b     w0, [w15-2]
    20d0:	81 1f 78    	mov.w     w1, [w15++]
    20d2:	82 1f 78    	mov.w     w2, [w15++]
    20d4:	8f 87 e8    	inc2.w    w15, w15
    20d6:	20 c0 b3    	mov.b     #0x2, w0
    20d8:	e0 ff 9f    	mov.b     w0, [w15-2]
    20da:	8f 87 e8    	inc2.w    w15, w15
    20dc:	30 c0 b3    	mov.b     #0x3, w0
    20de:	e0 ff 9f    	mov.b     w0, [w15-2]
    20e0:	03 03 78    	mov.w     w3, w6
    20e2:	84 02 78    	mov.w     w4, w5
    20e4:	08 02 78    	mov.w     w8, w4
    20e6:	89 01 78    	mov.w     w9, w3
    20e8:	0a 01 78    	mov.w     w10, w2
    20ea:	8b 00 78    	mov.w     w11, w1
    20ec:	00 a3 20    	mov.w     #0xa30, w0
    20ee:	43 00 07    	rcall     0x2176 <_uart_init>
    20f0:	f0 87 57    	sub.w     w15, #0x10, w15
    20f2:	61 6b 20    	mov.w     #0x6b6, w1
    20f4:	62 6b 20    	mov.w     #0x6b6, w2
    20f6:	e7 09 20    	mov.w     #0x9e, w7
    20f8:	e3 08 20    	mov.w     #0x8e, w3
    20fa:	84 2b 20    	mov.w     #0x2b8, w4
    20fc:	68 2b 20    	mov.w     #0x2b6, w8
    20fe:	49 2b 20    	mov.w     #0x2b4, w9
    2100:	2a 2b 20    	mov.w     #0x2b2, w10
    2102:	0b 2b 20    	mov.w     #0x2b0, w11
    2104:	f0 01 20    	mov.w     #0x1f, w0
    2106:	80 1f 78    	mov.w     w0, [w15++]
    2108:	e0 01 20    	mov.w     #0x1e, w0
    210a:	80 1f 78    	mov.w     w0, [w15++]
    210c:	8f 87 e8    	inc2.w    w15, w15
    210e:	80 c0 b3    	mov.b     #0x8, w0
    2110:	e0 ff 9f    	mov.b     w0, [w15-2]
    2112:	8f 87 e8    	inc2.w    w15, w15
    2114:	00 40 eb    	clr.b     w0
    2116:	e0 ff 9f    	mov.b     w0, [w15-2]
    2118:	81 1f 78    	mov.w     w1, [w15++]
    211a:	82 1f 78    	mov.w     w2, [w15++]
    211c:	8f 87 e8    	inc2.w    w15, w15
    211e:	80 c0 b3    	mov.b     #0x8, w0
    2120:	e0 ff 9f    	mov.b     w0, [w15-2]
    2122:	8f 87 e8    	inc2.w    w15, w15
    2124:	90 c0 b3    	mov.b     #0x9, w0
    2126:	e0 ff 9f    	mov.b     w0, [w15-2]
    2128:	03 03 78    	mov.w     w3, w6
    212a:	84 02 78    	mov.w     w4, w5
    212c:	08 02 78    	mov.w     w8, w4
    212e:	89 01 78    	mov.w     w9, w3
    2130:	0a 01 78    	mov.w     w10, w2
    2132:	8b 00 78    	mov.w     w11, w1
    2134:	c0 a6 20    	mov.w     #0xa6c, w0
    2136:	1f 00 07    	rcall     0x2176 <_uart_init>
    2138:	f0 87 57    	sub.w     w15, #0x10, w15
    213a:	00 00 eb    	clr.w     w0
    213c:	80 1f 78    	mov.w     w0, [w15++]
    213e:	00 00 eb    	clr.w     w0
    2140:	80 1f 78    	mov.w     w0, [w15++]
    2142:	00 00 eb    	clr.w     w0
    2144:	80 1f 78    	mov.w     w0, [w15++]
    2146:	00 00 eb    	clr.w     w0
    2148:	80 1f 78    	mov.w     w0, [w15++]
    214a:	00 00 eb    	clr.w     w0
    214c:	80 1f 78    	mov.w     w0, [w15++]
    214e:	10 00 20    	mov.w     #0x1, w0
    2150:	80 1f 78    	mov.w     w0, [w15++]
    2152:	e5 c4 b3    	mov.b     #0x4e, w5
    2154:	06 00 20    	mov.w     #0x0, w6
    2156:	67 69 24    	mov.w     #0x4696, w7
    2158:	00 02 eb    	clr.w     w4
    215a:	80 01 eb    	clr.w     w3
    215c:	22 ac 20    	mov.w     #0xac2, w2
    215e:	c1 aa 20    	mov.w     #0xaac, w1
    2160:	80 9b 20    	mov.w     #0x9b8, w0
    2162:	74 00 07    	rcall     0x224c <_uart_open>
    2164:	ec 87 57    	sub.w     w15, #0xc, w15
    2166:	80 9b 20    	mov.w     #0x9b8, w0
    2168:	40 55 88    	mov.w     w0, 0xaa8
    216a:	80 9b 20    	mov.w     #0x9b8, w0
    216c:	50 55 88    	mov.w     w0, 0xaaa
    216e:	4f 05 be    	mov.d     [--w15], w10
    2170:	4f 04 be    	mov.d     [--w15], w8
    2172:	00 80 fa    	ulnk      
    2174:	00 00 06    	return    

00002176 <_uart_init>:
    2176:	10 00 fa    	lnk       #0x10
    2178:	00 0f 78    	mov.w     w0, [w14]
    217a:	11 07 98    	mov.w     w1, [w14+2]
    217c:	22 07 98    	mov.w     w2, [w14+4]
    217e:	33 07 98    	mov.w     w3, [w14+6]
    2180:	44 07 98    	mov.w     w4, [w14+8]
    2182:	55 07 98    	mov.w     w5, [w14+10]
    2184:	66 07 98    	mov.w     w6, [w14+12]
    2186:	77 07 98    	mov.w     w7, [w14+14]
    2188:	1e 00 78    	mov.w     [w14], w0
    218a:	9e 00 90    	mov.w     [w14+2], w1
    218c:	01 08 78    	mov.w     w1, [w0]
    218e:	1e 00 78    	mov.w     [w14], w0
    2190:	ae 00 90    	mov.w     [w14+4], w1
    2192:	11 00 98    	mov.w     w1, [w0+2]
    2194:	1e 00 78    	mov.w     [w14], w0
    2196:	be 00 90    	mov.w     [w14+6], w1
    2198:	21 00 98    	mov.w     w1, [w0+4]
    219a:	1e 00 78    	mov.w     [w14], w0
    219c:	ce 00 90    	mov.w     [w14+8], w1
    219e:	31 00 98    	mov.w     w1, [w0+6]
    21a0:	1e 00 78    	mov.w     [w14], w0
    21a2:	de 00 90    	mov.w     [w14+10], w1
    21a4:	41 00 98    	mov.w     w1, [w0+8]
    21a6:	1e 00 78    	mov.w     [w14], w0
    21a8:	ee 00 90    	mov.w     [w14+12], w1
    21aa:	51 00 98    	mov.w     w1, [w0+10]
    21ac:	1e 00 78    	mov.w     [w14], w0
    21ae:	fe 00 90    	mov.w     [w14+14], w1
    21b0:	61 00 98    	mov.w     w1, [w0+12]
    21b2:	1e 00 78    	mov.w     [w14], w0
    21b4:	8e f8 97    	mov.b     [w14-8], w1
    21b6:	61 48 98    	mov.b     w1, [w0+14]
    21b8:	1e 00 78    	mov.w     [w14], w0
    21ba:	ee f0 97    	mov.b     [w14-10], w1
    21bc:	71 48 98    	mov.b     w1, [w0+15]
    21be:	1e 00 78    	mov.w     [w14], w0
    21c0:	ae b8 97    	mov.w     [w14-12], w1
    21c2:	01 08 98    	mov.w     w1, [w0+16]
    21c4:	1e 00 78    	mov.w     [w14], w0
    21c6:	9e b8 97    	mov.w     [w14-14], w1
    21c8:	11 08 98    	mov.w     w1, [w0+18]
    21ca:	1e 00 78    	mov.w     [w14], w0
    21cc:	8e f0 97    	mov.b     [w14-16], w1
    21ce:	41 50 98    	mov.b     w1, [w0+20]
    21d0:	1e 00 78    	mov.w     [w14], w0
    21d2:	ee e8 97    	mov.b     [w14-18], w1
    21d4:	51 50 98    	mov.b     w1, [w0+21]
    21d6:	1e 00 78    	mov.w     [w14], w0
    21d8:	ee b0 97    	mov.w     [w14-20], w1
    21da:	31 08 98    	mov.w     w1, [w0+22]
    21dc:	1e 00 78    	mov.w     [w14], w0
    21de:	de b0 97    	mov.w     [w14-22], w1
    21e0:	41 08 98    	mov.w     w1, [w0+24]
    21e2:	9e 00 78    	mov.w     [w14], w1
    21e4:	00 00 eb    	clr.w     w0
    21e6:	d0 08 98    	mov.w     w0, [w1+26]
    21e8:	9e 00 78    	mov.w     [w14], w1
    21ea:	00 00 eb    	clr.w     w0
    21ec:	e0 08 98    	mov.w     w0, [w1+28]
    21ee:	9e 00 78    	mov.w     [w14], w1
    21f0:	00 00 eb    	clr.w     w0
    21f2:	f0 08 98    	mov.w     w0, [w1+30]
    21f4:	9e 00 78    	mov.w     [w14], w1
    21f6:	00 00 eb    	clr.w     w0
    21f8:	80 10 98    	mov.w     w0, [w1+32]
    21fa:	9e 00 78    	mov.w     [w14], w1
    21fc:	00 00 eb    	clr.w     w0
    21fe:	90 10 98    	mov.w     w0, [w1+34]
    2200:	9e 00 78    	mov.w     [w14], w1
    2202:	00 00 eb    	clr.w     w0
    2204:	a0 10 98    	mov.w     w0, [w1+36]
    2206:	9e 00 78    	mov.w     [w14], w1
    2208:	00 00 eb    	clr.w     w0
    220a:	b0 10 98    	mov.w     w0, [w1+38]
    220c:	9e 00 78    	mov.w     [w14], w1
    220e:	00 00 eb    	clr.w     w0
    2210:	c0 10 98    	mov.w     w0, [w1+40]
    2212:	9e 00 78    	mov.w     [w14], w1
    2214:	00 00 eb    	clr.w     w0
    2216:	d0 10 98    	mov.w     w0, [w1+42]
    2218:	9e 00 78    	mov.w     [w14], w1
    221a:	00 00 eb    	clr.w     w0
    221c:	e0 10 98    	mov.w     w0, [w1+44]
    221e:	9e 00 78    	mov.w     [w14], w1
    2220:	00 00 eb    	clr.w     w0
    2222:	f0 10 98    	mov.w     w0, [w1+46]
    2224:	9e 00 78    	mov.w     [w14], w1
    2226:	00 00 eb    	clr.w     w0
    2228:	80 18 98    	mov.w     w0, [w1+48]
    222a:	9e 00 78    	mov.w     [w14], w1
    222c:	00 00 eb    	clr.w     w0
    222e:	90 18 98    	mov.w     w0, [w1+50]
    2230:	9e 00 78    	mov.w     [w14], w1
    2232:	00 00 eb    	clr.w     w0
    2234:	a0 18 98    	mov.w     w0, [w1+52]
    2236:	9e 00 78    	mov.w     [w14], w1
    2238:	10 00 20    	mov.w     #0x1, w0
    223a:	b0 18 98    	mov.w     w0, [w1+54]
    223c:	9e 00 78    	mov.w     [w14], w1
    223e:	00 00 eb    	clr.w     w0
    2240:	c0 18 98    	mov.w     w0, [w1+56]
    2242:	9e 00 78    	mov.w     [w14], w1
    2244:	00 00 eb    	clr.w     w0
    2246:	d0 18 98    	mov.w     w0, [w1+58]
    2248:	00 80 fa    	ulnk      
    224a:	00 00 06    	return    

0000224c <_uart_open>:
    224c:	10 00 fa    	lnk       #0x10
    224e:	88 1f 78    	mov.w     w8, [w15++]
    2250:	00 0f 78    	mov.w     w0, [w14]
    2252:	11 07 98    	mov.w     w1, [w14+2]
    2254:	22 07 98    	mov.w     w2, [w14+4]
    2256:	33 07 98    	mov.w     w3, [w14+6]
    2258:	44 07 98    	mov.w     w4, [w14+8]
    225a:	56 07 98    	mov.w     w6, [w14+10]
    225c:	67 07 98    	mov.w     w7, [w14+12]
    225e:	65 4f 98    	mov.b     w5, [w14+14]
    2260:	1e 00 78    	mov.w     [w14], w0
    2262:	90 00 78    	mov.w     [w0], w1
    2264:	00 00 eb    	clr.w     w0
    2266:	80 08 78    	mov.w     w0, [w1]
    2268:	1e 00 90    	mov.w     [w14+2], w0
    226a:	60 00 90    	mov.w     [w0+12], w0
    226c:	e1 0f 40    	add.w     w0, #0x1, [w15]
    226e:	07 02 32    	bra       Z, 0x267e <.L119>
    2270:	2e 00 90    	mov.w     [w14+4], w0
    2272:	60 00 90    	mov.w     [w0+12], w0
    2274:	e1 0f 40    	add.w     w0, #0x1, [w15]
    2276:	01 00 3a    	bra       NZ, 0x227a <.L69>
    2278:	02 02 37    	bra       0x267e <.L119>

0000227a <.L69>:
    227a:	1e 00 90    	mov.w     [w14+2], w0
    227c:	00 08 90    	mov.w     [w0+16], w0
    227e:	00 00 e0    	cp0.w     w0
    2280:	69 00 3a    	bra       NZ, 0x2354 <.L71>
    2282:	2e 00 90    	mov.w     [w14+4], w0
    2284:	00 08 90    	mov.w     [w0+16], w0
    2286:	00 00 e0    	cp0.w     w0
    2288:	65 00 3a    	bra       NZ, 0x2354 <.L71>
    228a:	1e 00 90    	mov.w     [w14+2], w0
    228c:	89 05 07    	rcall     0x2da0 <_pin_digitalOut>
    228e:	1e 00 90    	mov.w     [w14+2], w0
    2290:	e2 05 07    	rcall     0x2e56 <_pin_set>
    2292:	2e 00 90    	mov.w     [w14+4], w0
    2294:	5e 05 07    	rcall     0x2d52 <_pin_digitalIn>
    2296:	1e 00 78    	mov.w     [w14], w0
    2298:	9e 00 90    	mov.w     [w14+2], w1
    229a:	51 08 98    	mov.w     w1, [w0+26]
    229c:	1e 00 90    	mov.w     [w14+2], w0
    229e:	9e 01 78    	mov.w     [w14], w3
    22a0:	03 08 98    	mov.w     w3, [w0+16]
    22a2:	9e 00 90    	mov.w     [w14+2], w1
    22a4:	00 00 eb    	clr.w     w0
    22a6:	90 08 98    	mov.w     w0, [w1+18]
    22a8:	9e 00 90    	mov.w     [w14+2], w1
    22aa:	00 00 eb    	clr.w     w0
    22ac:	a0 08 98    	mov.w     w0, [w1+20]
    22ae:	1e 00 78    	mov.w     [w14], w0
    22b0:	ae 00 90    	mov.w     [w14+4], w1
    22b2:	61 08 98    	mov.w     w1, [w0+28]
    22b4:	2e 00 90    	mov.w     [w14+4], w0
    22b6:	9e 01 78    	mov.w     [w14], w3
    22b8:	03 08 98    	mov.w     w3, [w0+16]
    22ba:	ae 00 90    	mov.w     [w14+4], w1
    22bc:	00 00 eb    	clr.w     w0
    22be:	90 08 98    	mov.w     w0, [w1+18]
    22c0:	ae 00 90    	mov.w     [w14+4], w1
    22c2:	00 00 eb    	clr.w     w0
    22c4:	a0 08 98    	mov.w     w0, [w1+20]
    22c6:	11 3a 80    	mov.w     0x742, w1
    22c8:	f0 0b 20    	mov.w     #0xbf, w0
    22ca:	00 81 60    	and.w     w1, w0, w2
    22cc:	61 04 20    	mov.w     #0x46, w1
    22ce:	70 05 20    	mov.w     #0x57, w0
    22d0:	23 74 20    	mov.w     #0x742, w3
    22d2:	81 49 78    	mov.b     w1, [w3]
    22d4:	80 49 78    	mov.b     w0, [w3]
    22d6:	82 49 78    	mov.b     w2, [w3]
    22d8:	1e 00 90    	mov.w     [w14+2], w0
    22da:	f0 01 90    	mov.w     [w0+14], w3
    22dc:	1e 00 90    	mov.w     [w14+2], w0
    22de:	70 00 90    	mov.w     [w0+14], w0
    22e0:	10 01 78    	mov.w     [w0], w2
    22e2:	1e 00 90    	mov.w     [w14+2], w0
    22e4:	20 48 90    	mov.b     [w0+10], w0
    22e6:	80 80 fb    	ze        w0, w1
    22e8:	f0 03 20    	mov.w     #0x3f, w0
    22ea:	01 00 dd    	sl.w      w0, w1, w0
    22ec:	00 80 ea    	com.w     w0, w0
    22ee:	00 00 61    	and.w     w2, w0, w0
    22f0:	80 09 78    	mov.w     w0, [w3]
    22f2:	1e 00 90    	mov.w     [w14+2], w0
    22f4:	f0 01 90    	mov.w     [w0+14], w3
    22f6:	1e 00 90    	mov.w     [w14+2], w0
    22f8:	70 00 90    	mov.w     [w0+14], w0
    22fa:	10 01 78    	mov.w     [w0], w2
    22fc:	1e 00 78    	mov.w     [w14], w0
    22fe:	b0 08 90    	mov.w     [w0+22], w1
    2300:	1e 00 90    	mov.w     [w14+2], w0
    2302:	20 48 90    	mov.b     [w0+10], w0
    2304:	00 80 fb    	ze        w0, w0
    2306:	00 08 dd    	sl.w      w1, w0, w0
    2308:	00 00 71    	ior.w     w2, w0, w0
    230a:	80 09 78    	mov.w     w0, [w3]
    230c:	1e 00 78    	mov.w     [w14], w0
    230e:	80 09 90    	mov.w     [w0+16], w3
    2310:	1e 00 78    	mov.w     [w14], w0
    2312:	00 08 90    	mov.w     [w0+16], w0
    2314:	10 01 78    	mov.w     [w0], w2
    2316:	1e 00 78    	mov.w     [w14], w0
    2318:	40 50 90    	mov.b     [w0+20], w0
    231a:	80 80 fb    	ze        w0, w1
    231c:	f0 03 20    	mov.w     #0x3f, w0
    231e:	01 00 dd    	sl.w      w0, w1, w0
    2320:	00 80 ea    	com.w     w0, w0
    2322:	00 00 61    	and.w     w2, w0, w0
    2324:	80 09 78    	mov.w     w0, [w3]
    2326:	1e 00 78    	mov.w     [w14], w0
    2328:	80 09 90    	mov.w     [w0+16], w3
    232a:	1e 00 78    	mov.w     [w14], w0
    232c:	00 08 90    	mov.w     [w0+16], w0
    232e:	10 01 78    	mov.w     [w0], w2
    2330:	2e 00 90    	mov.w     [w14+4], w0
    2332:	e0 00 90    	mov.w     [w0+12], w1
    2334:	1e 00 78    	mov.w     [w14], w0
    2336:	40 50 90    	mov.b     [w0+20], w0
    2338:	00 80 fb    	ze        w0, w0
    233a:	00 08 dd    	sl.w      w1, w0, w0
    233c:	00 00 71    	ior.w     w2, w0, w0
    233e:	80 09 78    	mov.w     w0, [w3]
    2340:	11 3a 80    	mov.w     0x742, w1
    2342:	00 04 20    	mov.w     #0x40, w0
    2344:	00 81 70    	ior.w     w1, w0, w2
    2346:	61 04 20    	mov.w     #0x46, w1
    2348:	70 05 20    	mov.w     #0x57, w0
    234a:	23 74 20    	mov.w     #0x742, w3
    234c:	81 49 78    	mov.b     w1, [w3]
    234e:	80 49 78    	mov.b     w0, [w3]
    2350:	82 49 78    	mov.b     w2, [w3]
    2352:	0b 00 37    	bra       0x236a <.L74>

00002354 <.L71>:
    2354:	1e 00 78    	mov.w     [w14], w0
    2356:	d0 08 90    	mov.w     [w0+26], w1
    2358:	1e 00 90    	mov.w     [w14+2], w0
    235a:	80 8f 50    	sub.w     w1, w0, [w15]
    235c:	90 01 3a    	bra       NZ, 0x267e <.L119>
    235e:	1e 00 78    	mov.w     [w14], w0
    2360:	e0 08 90    	mov.w     [w0+28], w1
    2362:	2e 00 90    	mov.w     [w14+4], w0
    2364:	80 8f 50    	sub.w     w1, w0, [w15]
    2366:	01 00 32    	bra       Z, 0x236a <.L74>
    2368:	8a 01 37    	bra       0x267e <.L119>

0000236a <.L74>:
    236a:	3e 00 90    	mov.w     [w14+6], w0
    236c:	00 00 e0    	cp0.w     w0
    236e:	89 00 32    	bra       Z, 0x2482 <.L77>
    2370:	4e 00 90    	mov.w     [w14+8], w0
    2372:	00 00 e0    	cp0.w     w0
    2374:	86 00 32    	bra       Z, 0x2482 <.L77>
    2376:	3e 00 90    	mov.w     [w14+6], w0
    2378:	60 00 90    	mov.w     [w0+12], w0
    237a:	e1 0f 40    	add.w     w0, #0x1, [w15]
    237c:	80 01 32    	bra       Z, 0x267e <.L119>
    237e:	4e 00 90    	mov.w     [w14+8], w0
    2380:	60 00 90    	mov.w     [w0+12], w0
    2382:	e1 0f 40    	add.w     w0, #0x1, [w15]
    2384:	01 00 3a    	bra       NZ, 0x2388 <.L82>
    2386:	7b 01 37    	bra       0x267e <.L119>

00002388 <.L82>:
    2388:	3e 00 90    	mov.w     [w14+6], w0
    238a:	00 08 90    	mov.w     [w0+16], w0
    238c:	00 00 e0    	cp0.w     w0
    238e:	69 00 3a    	bra       NZ, 0x2462 <.L83>
    2390:	4e 00 90    	mov.w     [w14+8], w0
    2392:	00 08 90    	mov.w     [w0+16], w0
    2394:	00 00 e0    	cp0.w     w0
    2396:	65 00 3a    	bra       NZ, 0x2462 <.L83>
    2398:	3e 00 90    	mov.w     [w14+6], w0
    239a:	02 05 07    	rcall     0x2da0 <_pin_digitalOut>
    239c:	3e 00 90    	mov.w     [w14+6], w0
    239e:	5b 05 07    	rcall     0x2e56 <_pin_set>
    23a0:	4e 00 90    	mov.w     [w14+8], w0
    23a2:	d7 04 07    	rcall     0x2d52 <_pin_digitalIn>
    23a4:	1e 00 78    	mov.w     [w14], w0
    23a6:	be 00 90    	mov.w     [w14+6], w1
    23a8:	71 08 98    	mov.w     w1, [w0+30]
    23aa:	3e 00 90    	mov.w     [w14+6], w0
    23ac:	9e 01 78    	mov.w     [w14], w3
    23ae:	03 08 98    	mov.w     w3, [w0+16]
    23b0:	be 00 90    	mov.w     [w14+6], w1
    23b2:	00 00 eb    	clr.w     w0
    23b4:	90 08 98    	mov.w     w0, [w1+18]
    23b6:	be 00 90    	mov.w     [w14+6], w1
    23b8:	00 00 eb    	clr.w     w0
    23ba:	a0 08 98    	mov.w     w0, [w1+20]
    23bc:	1e 00 78    	mov.w     [w14], w0
    23be:	ce 00 90    	mov.w     [w14+8], w1
    23c0:	01 10 98    	mov.w     w1, [w0+32]
    23c2:	4e 00 90    	mov.w     [w14+8], w0
    23c4:	9e 01 78    	mov.w     [w14], w3
    23c6:	03 08 98    	mov.w     w3, [w0+16]
    23c8:	ce 00 90    	mov.w     [w14+8], w1
    23ca:	00 00 eb    	clr.w     w0
    23cc:	90 08 98    	mov.w     w0, [w1+18]
    23ce:	ce 00 90    	mov.w     [w14+8], w1
    23d0:	00 00 eb    	clr.w     w0
    23d2:	a0 08 98    	mov.w     w0, [w1+20]
    23d4:	11 3a 80    	mov.w     0x742, w1
    23d6:	f0 0b 20    	mov.w     #0xbf, w0
    23d8:	00 81 60    	and.w     w1, w0, w2
    23da:	61 04 20    	mov.w     #0x46, w1
    23dc:	70 05 20    	mov.w     #0x57, w0
    23de:	23 74 20    	mov.w     #0x742, w3
    23e0:	81 49 78    	mov.b     w1, [w3]
    23e2:	80 49 78    	mov.b     w0, [w3]
    23e4:	82 49 78    	mov.b     w2, [w3]
    23e6:	3e 00 90    	mov.w     [w14+6], w0
    23e8:	f0 01 90    	mov.w     [w0+14], w3
    23ea:	3e 00 90    	mov.w     [w14+6], w0
    23ec:	70 00 90    	mov.w     [w0+14], w0
    23ee:	10 01 78    	mov.w     [w0], w2
    23f0:	3e 00 90    	mov.w     [w14+6], w0
    23f2:	20 48 90    	mov.b     [w0+10], w0
    23f4:	80 80 fb    	ze        w0, w1
    23f6:	f0 03 20    	mov.w     #0x3f, w0
    23f8:	01 00 dd    	sl.w      w0, w1, w0
    23fa:	00 80 ea    	com.w     w0, w0
    23fc:	00 00 61    	and.w     w2, w0, w0
    23fe:	80 09 78    	mov.w     w0, [w3]
    2400:	3e 00 90    	mov.w     [w14+6], w0
    2402:	f0 01 90    	mov.w     [w0+14], w3
    2404:	3e 00 90    	mov.w     [w14+6], w0
    2406:	70 00 90    	mov.w     [w0+14], w0
    2408:	10 01 78    	mov.w     [w0], w2
    240a:	1e 00 78    	mov.w     [w14], w0
    240c:	c0 08 90    	mov.w     [w0+24], w1
    240e:	3e 00 90    	mov.w     [w14+6], w0
    2410:	20 48 90    	mov.b     [w0+10], w0
    2412:	00 80 fb    	ze        w0, w0
    2414:	00 08 dd    	sl.w      w1, w0, w0
    2416:	00 00 71    	ior.w     w2, w0, w0
    2418:	80 09 78    	mov.w     w0, [w3]
    241a:	1e 00 78    	mov.w     [w14], w0
    241c:	90 09 90    	mov.w     [w0+18], w3
    241e:	1e 00 78    	mov.w     [w14], w0
    2420:	10 08 90    	mov.w     [w0+18], w0
    2422:	10 01 78    	mov.w     [w0], w2
    2424:	1e 00 78    	mov.w     [w14], w0
    2426:	50 50 90    	mov.b     [w0+21], w0
    2428:	80 80 fb    	ze        w0, w1
    242a:	f0 03 20    	mov.w     #0x3f, w0
    242c:	01 00 dd    	sl.w      w0, w1, w0
    242e:	00 80 ea    	com.w     w0, w0
    2430:	00 00 61    	and.w     w2, w0, w0
    2432:	80 09 78    	mov.w     w0, [w3]
    2434:	1e 00 78    	mov.w     [w14], w0
    2436:	90 09 90    	mov.w     [w0+18], w3
    2438:	1e 00 78    	mov.w     [w14], w0
    243a:	10 08 90    	mov.w     [w0+18], w0
    243c:	10 01 78    	mov.w     [w0], w2
    243e:	4e 00 90    	mov.w     [w14+8], w0
    2440:	e0 00 90    	mov.w     [w0+12], w1
    2442:	1e 00 78    	mov.w     [w14], w0
    2444:	50 50 90    	mov.b     [w0+21], w0
    2446:	00 80 fb    	ze        w0, w0
    2448:	00 08 dd    	sl.w      w1, w0, w0
    244a:	00 00 71    	ior.w     w2, w0, w0
    244c:	80 09 78    	mov.w     w0, [w3]
    244e:	11 3a 80    	mov.w     0x742, w1
    2450:	00 04 20    	mov.w     #0x40, w0
    2452:	00 81 70    	ior.w     w1, w0, w2
    2454:	61 04 20    	mov.w     #0x46, w1
    2456:	70 05 20    	mov.w     #0x57, w0
    2458:	23 74 20    	mov.w     #0x742, w3
    245a:	81 49 78    	mov.b     w1, [w3]
    245c:	80 49 78    	mov.b     w0, [w3]
    245e:	82 49 78    	mov.b     w2, [w3]
    2460:	0b 00 37    	bra       0x2478 <.L86>

00002462 <.L83>:
    2462:	1e 00 78    	mov.w     [w14], w0
    2464:	f0 08 90    	mov.w     [w0+30], w1
    2466:	3e 00 90    	mov.w     [w14+6], w0
    2468:	80 8f 50    	sub.w     w1, w0, [w15]
    246a:	09 01 3a    	bra       NZ, 0x267e <.L119>
    246c:	1e 00 78    	mov.w     [w14], w0
    246e:	80 10 90    	mov.w     [w0+32], w1
    2470:	4e 00 90    	mov.w     [w14+8], w0
    2472:	80 8f 50    	sub.w     w1, w0, [w15]
    2474:	01 00 32    	bra       Z, 0x2478 <.L86>
    2476:	03 01 37    	bra       0x267e <.L119>

00002478 <.L86>:
    2478:	1e 00 78    	mov.w     [w14], w0
    247a:	90 00 78    	mov.w     [w0], w1
    247c:	00 20 20    	mov.w     #0x200, w0
    247e:	80 08 78    	mov.w     w0, [w1]
    2480:	07 00 37    	bra       0x2490 <.L89>

00002482 <.L77>:
    2482:	3e 00 90    	mov.w     [w14+6], w0
    2484:	00 00 e0    	cp0.w     w0
    2486:	fb 00 3a    	bra       NZ, 0x267e <.L119>
    2488:	4e 00 90    	mov.w     [w14+8], w0
    248a:	00 00 e0    	cp0.w     w0
    248c:	01 00 32    	bra       Z, 0x2490 <.L89>
    248e:	f7 00 37    	bra       0x267e <.L119>

00002490 <.L89>:
    2490:	02 40 22    	mov.w     #0x2400, w2
    2492:	43 a7 24    	mov.w     #0x4a74, w3
    2494:	5e 00 90    	mov.w     [w14+10], w0
    2496:	ee 00 90    	mov.w     [w14+12], w1
    2498:	ad f6 07    	rcall     0x11f4 <___gesf2>
    249a:	00 00 e0    	cp0.w     w0
    249c:	01 00 3c    	bra       GT, 0x24a0 <.L94>
    249e:	04 00 37    	bra       0x24a8 <.L92>

000024a0 <.L94>:
    24a0:	00 40 22    	mov.w     #0x2400, w0
    24a2:	41 a7 24    	mov.w     #0x4a74, w1
    24a4:	50 07 98    	mov.w     w0, [w14+10]
    24a6:	61 07 98    	mov.w     w1, [w14+12]

000024a8 <.L92>:
    24a8:	02 40 22    	mov.w     #0x2400, w2
    24aa:	43 17 24    	mov.w     #0x4174, w3
    24ac:	5e 00 90    	mov.w     [w14+10], w0
    24ae:	ee 00 90    	mov.w     [w14+12], w1
    24b0:	a3 f6 07    	rcall     0x11f8 <___eqsf2>
    24b2:	00 00 e0    	cp0.w     w0
    24b4:	01 00 35    	bra       LT, 0x24b8 <.L97>
    24b6:	04 00 37    	bra       0x24c0 <.L95>

000024b8 <.L97>:
    24b8:	00 40 22    	mov.w     #0x2400, w0
    24ba:	41 17 24    	mov.w     #0x4174, w1
    24bc:	50 07 98    	mov.w     w0, [w14+10]
    24be:	61 07 98    	mov.w     w1, [w14+12]

000024c0 <.L95>:
    24c0:	02 40 22    	mov.w     #0x2400, w2
    24c2:	43 27 24    	mov.w     #0x4274, w3
    24c4:	5e 00 90    	mov.w     [w14+10], w0
    24c6:	ee 00 90    	mov.w     [w14+12], w1
    24c8:	97 f6 07    	rcall     0x11f8 <___eqsf2>
    24ca:	00 00 e0    	cp0.w     w0
    24cc:	01 00 34    	bra       LE, 0x24d0 <.L100>
    24ce:	0e 00 37    	bra       0x24ec <.L98>

000024d0 <.L100>:
    24d0:	1e 00 78    	mov.w     [w14], w0
    24d2:	40 04 90    	mov.w     [w0+8], w8
    24d4:	5e 01 90    	mov.w     [w14+10], w2
    24d6:	ee 01 90    	mov.w     [w14+12], w3
    24d8:	00 40 22    	mov.w     #0x2400, w0
    24da:	41 97 24    	mov.w     #0x4974, w1
    24dc:	8f f6 07    	rcall     0x11fc <___divsf3>
    24de:	02 00 20    	mov.w     #0x0, w2
    24e0:	03 f0 23    	mov.w     #0x3f00, w3
    24e2:	cf f6 07    	rcall     0x1282 <___addsf3>
    24e4:	2b f7 07    	rcall     0x133c <___fixunssfsi>
    24e6:	00 00 e9    	dec.w     w0, w0
    24e8:	00 0c 78    	mov.w     w0, [w8]
    24ea:	14 00 37    	bra       0x2514 <.L101>

000024ec <.L98>:
    24ec:	1e 00 78    	mov.w     [w14], w0
    24ee:	90 00 78    	mov.w     [w0], w1
    24f0:	1e 00 78    	mov.w     [w14], w0
    24f2:	10 00 78    	mov.w     [w0], w0
    24f4:	10 00 78    	mov.w     [w0], w0
    24f6:	00 30 a0    	bset.w    w0, #0x3
    24f8:	80 08 78    	mov.w     w0, [w1]
    24fa:	1e 00 78    	mov.w     [w14], w0
    24fc:	40 04 90    	mov.w     [w0+8], w8
    24fe:	5e 01 90    	mov.w     [w14+10], w2
    2500:	ee 01 90    	mov.w     [w14+12], w3
    2502:	00 40 22    	mov.w     #0x2400, w0
    2504:	41 a7 24    	mov.w     #0x4a74, w1
    2506:	7a f6 07    	rcall     0x11fc <___divsf3>
    2508:	02 00 20    	mov.w     #0x0, w2
    250a:	03 f0 23    	mov.w     #0x3f00, w3
    250c:	ba f6 07    	rcall     0x1282 <___addsf3>
    250e:	16 f7 07    	rcall     0x133c <___fixunssfsi>
    2510:	00 00 e9    	dec.w     w0, w0
    2512:	00 0c 78    	mov.w     w0, [w8]

00002514 <.L101>:
    2514:	ee 48 90    	mov.b     [w14+14], w1
    2516:	50 c4 b3    	mov.b     #0x45, w0
    2518:	80 cf 50    	sub.b     w1, w0, [w15]
    251a:	04 00 32    	bra       Z, 0x2524 <.L102>
    251c:	ee 48 90    	mov.b     [w14+14], w1
    251e:	50 c6 b3    	mov.b     #0x65, w0
    2520:	80 cf 50    	sub.b     w1, w0, [w15]
    2522:	08 00 3a    	bra       NZ, 0x2534 <.L104>

00002524 <.L102>:
    2524:	1e 00 78    	mov.w     [w14], w0
    2526:	90 00 78    	mov.w     [w0], w1
    2528:	1e 00 78    	mov.w     [w14], w0
    252a:	10 00 78    	mov.w     [w0], w0
    252c:	10 00 78    	mov.w     [w0], w0
    252e:	00 10 a0    	bset.w    w0, #0x1
    2530:	80 08 78    	mov.w     w0, [w1]
    2532:	18 00 37    	bra       0x2564 <.L105>

00002534 <.L104>:
    2534:	ee 48 90    	mov.b     [w14+14], w1
    2536:	f0 c4 b3    	mov.b     #0x4f, w0
    2538:	80 cf 50    	sub.b     w1, w0, [w15]
    253a:	04 00 32    	bra       Z, 0x2544 <.L106>
    253c:	ee 48 90    	mov.b     [w14+14], w1
    253e:	f0 c6 b3    	mov.b     #0x6f, w0
    2540:	80 cf 50    	sub.b     w1, w0, [w15]
    2542:	08 00 3a    	bra       NZ, 0x2554 <.L108>

00002544 <.L106>:
    2544:	1e 00 78    	mov.w     [w14], w0
    2546:	90 00 78    	mov.w     [w0], w1
    2548:	1e 00 78    	mov.w     [w14], w0
    254a:	10 00 78    	mov.w     [w0], w0
    254c:	10 00 78    	mov.w     [w0], w0
    254e:	00 20 a0    	bset.w    w0, #0x2
    2550:	80 08 78    	mov.w     w0, [w1]
    2552:	08 00 37    	bra       0x2564 <.L105>

00002554 <.L108>:
    2554:	ee 48 90    	mov.b     [w14+14], w1
    2556:	e0 c4 b3    	mov.b     #0x4e, w0
    2558:	80 cf 50    	sub.b     w1, w0, [w15]
    255a:	04 00 32    	bra       Z, 0x2564 <.L105>
    255c:	ee 48 90    	mov.b     [w14+14], w1
    255e:	e0 c6 b3    	mov.b     #0x6e, w0
    2560:	80 cf 50    	sub.b     w1, w0, [w15]
    2562:	8d 00 3a    	bra       NZ, 0x267e <.L119>

00002564 <.L105>:
    2564:	4e b8 97    	mov.w     [w14-8], w0
    2566:	e2 0f 50    	sub.w     w0, #0x2, [w15]
    2568:	08 00 3a    	bra       NZ, 0x257a <.L110>
    256a:	1e 00 78    	mov.w     [w14], w0
    256c:	90 00 78    	mov.w     [w0], w1
    256e:	1e 00 78    	mov.w     [w14], w0
    2570:	10 00 78    	mov.w     [w0], w0
    2572:	10 00 78    	mov.w     [w0], w0
    2574:	00 00 a0    	bset.w    w0, #0x0
    2576:	80 08 78    	mov.w     w0, [w1]
    2578:	03 00 37    	bra       0x2580 <.L112>

0000257a <.L110>:
    257a:	4e b8 97    	mov.w     [w14-8], w0
    257c:	e1 0f 50    	sub.w     w0, #0x1, [w15]
    257e:	7f 00 3a    	bra       NZ, 0x267e <.L119>

00002580 <.L112>:
    2580:	2e b8 97    	mov.w     [w14-12], w0
    2582:	00 00 e0    	cp0.w     w0
    2584:	04 00 3a    	bra       NZ, 0x258e <.L113>
    2586:	9e 00 78    	mov.w     [w14], w1
    2588:	a0 c6 21    	mov.w     #0x1c6a, w0
    258a:	c0 18 98    	mov.w     w0, [w1+56]
    258c:	36 00 37    	bra       0x25fa <.L115>

0000258e <.L113>:
    258e:	1e 00 78    	mov.w     [w14], w0
    2590:	10 01 90    	mov.w     [w0+2], w2
    2592:	1e 00 78    	mov.w     [w14], w0
    2594:	10 00 90    	mov.w     [w0+2], w0
    2596:	90 00 78    	mov.w     [w0], w1
    2598:	00 00 22    	mov.w     #0x2000, w0
    259a:	00 80 70    	ior.w     w1, w0, w0
    259c:	00 09 78    	mov.w     w0, [w2]
    259e:	1e 00 78    	mov.w     [w14], w0
    25a0:	ae b8 97    	mov.w     [w14-12], w1
    25a2:	11 10 98    	mov.w     w1, [w0+34]
    25a4:	1e 00 78    	mov.w     [w14], w0
    25a6:	9e b9 97    	mov.w     [w14-14], w3
    25a8:	23 10 98    	mov.w     w3, [w0+36]
    25aa:	9e 00 78    	mov.w     [w14], w1
    25ac:	00 00 eb    	clr.w     w0
    25ae:	b0 10 98    	mov.w     w0, [w1+38]
    25b0:	9e 00 78    	mov.w     [w14], w1
    25b2:	00 00 eb    	clr.w     w0
    25b4:	c0 10 98    	mov.w     w0, [w1+40]
    25b6:	9e 00 78    	mov.w     [w14], w1
    25b8:	00 00 eb    	clr.w     w0
    25ba:	d0 10 98    	mov.w     w0, [w1+42]
    25bc:	1e 00 78    	mov.w     [w14], w0
    25be:	be b8 97    	mov.w     [w14-10], w1
    25c0:	31 18 98    	mov.w     w1, [w0+54]
    25c2:	9e 00 78    	mov.w     [w14], w1
    25c4:	80 cb 21    	mov.w     #0x1cb8, w0
    25c6:	c0 18 98    	mov.w     w0, [w1+56]
    25c8:	1e 00 78    	mov.w     [w14], w0
    25ca:	d0 01 90    	mov.w     [w0+10], w3
    25cc:	1e 00 78    	mov.w     [w14], w0
    25ce:	50 00 90    	mov.w     [w0+10], w0
    25d0:	10 01 78    	mov.w     [w0], w2
    25d2:	1e 00 78    	mov.w     [w14], w0
    25d4:	60 48 90    	mov.b     [w0+14], w0
    25d6:	80 80 fb    	ze        w0, w1
    25d8:	10 00 20    	mov.w     #0x1, w0
    25da:	01 00 dd    	sl.w      w0, w1, w0
    25dc:	00 80 ea    	com.w     w0, w0
    25de:	00 00 61    	and.w     w2, w0, w0
    25e0:	80 09 78    	mov.w     w0, [w3]
    25e2:	1e 00 78    	mov.w     [w14], w0
    25e4:	e0 01 90    	mov.w     [w0+12], w3
    25e6:	1e 00 78    	mov.w     [w14], w0
    25e8:	60 00 90    	mov.w     [w0+12], w0
    25ea:	10 01 78    	mov.w     [w0], w2
    25ec:	1e 00 78    	mov.w     [w14], w0
    25ee:	60 48 90    	mov.b     [w0+14], w0
    25f0:	80 80 fb    	ze        w0, w1
    25f2:	10 00 20    	mov.w     #0x1, w0
    25f4:	01 00 dd    	sl.w      w0, w1, w0
    25f6:	00 00 71    	ior.w     w2, w0, w0
    25f8:	80 09 78    	mov.w     w0, [w3]

000025fa <.L115>:
    25fa:	0e b8 97    	mov.w     [w14-16], w0
    25fc:	00 00 e0    	cp0.w     w0
    25fe:	04 00 3a    	bra       NZ, 0x2608 <.L116>
    2600:	9e 00 78    	mov.w     [w14], w1
    2602:	c0 c8 21    	mov.w     #0x1c8c, w0
    2604:	d0 18 98    	mov.w     w0, [w1+58]
    2606:	2b 00 37    	bra       0x265e <.L118>

00002608 <.L116>:
    2608:	1e 00 78    	mov.w     [w14], w0
    260a:	8e b9 97    	mov.w     [w14-16], w3
    260c:	63 10 98    	mov.w     w3, [w0+44]
    260e:	1e 00 78    	mov.w     [w14], w0
    2610:	fe b0 97    	mov.w     [w14-18], w1
    2612:	71 10 98    	mov.w     w1, [w0+46]
    2614:	9e 00 78    	mov.w     [w14], w1
    2616:	00 00 eb    	clr.w     w0
    2618:	80 18 98    	mov.w     w0, [w1+48]
    261a:	9e 00 78    	mov.w     [w14], w1
    261c:	00 00 eb    	clr.w     w0
    261e:	90 18 98    	mov.w     w0, [w1+50]
    2620:	9e 00 78    	mov.w     [w14], w1
    2622:	00 00 eb    	clr.w     w0
    2624:	a0 18 98    	mov.w     w0, [w1+52]
    2626:	9e 00 78    	mov.w     [w14], w1
    2628:	20 da 21    	mov.w     #0x1da2, w0
    262a:	d0 18 98    	mov.w     w0, [w1+58]
    262c:	1e 00 78    	mov.w     [w14], w0
    262e:	d0 01 90    	mov.w     [w0+10], w3
    2630:	1e 00 78    	mov.w     [w14], w0
    2632:	50 00 90    	mov.w     [w0+10], w0
    2634:	10 01 78    	mov.w     [w0], w2
    2636:	1e 00 78    	mov.w     [w14], w0
    2638:	70 48 90    	mov.b     [w0+15], w0
    263a:	80 80 fb    	ze        w0, w1
    263c:	10 00 20    	mov.w     #0x1, w0
    263e:	01 00 dd    	sl.w      w0, w1, w0
    2640:	00 80 ea    	com.w     w0, w0
    2642:	00 00 61    	and.w     w2, w0, w0
    2644:	80 09 78    	mov.w     w0, [w3]
    2646:	1e 00 78    	mov.w     [w14], w0
    2648:	e0 01 90    	mov.w     [w0+12], w3
    264a:	1e 00 78    	mov.w     [w14], w0
    264c:	60 00 90    	mov.w     [w0+12], w0
    264e:	10 01 78    	mov.w     [w0], w2
    2650:	1e 00 78    	mov.w     [w14], w0
    2652:	70 48 90    	mov.b     [w0+15], w0
    2654:	80 80 fb    	ze        w0, w1
    2656:	10 00 20    	mov.w     #0x1, w0
    2658:	01 00 dd    	sl.w      w0, w1, w0
    265a:	00 00 71    	ior.w     w2, w0, w0
    265c:	80 09 78    	mov.w     w0, [w3]

0000265e <.L118>:
    265e:	1e 00 78    	mov.w     [w14], w0
    2660:	10 01 78    	mov.w     [w0], w2
    2662:	1e 00 78    	mov.w     [w14], w0
    2664:	10 00 78    	mov.w     [w0], w0
    2666:	90 00 78    	mov.w     [w0], w1
    2668:	00 00 28    	mov.w     #0x8000, w0
    266a:	00 80 70    	ior.w     w1, w0, w0
    266c:	00 09 78    	mov.w     w0, [w2]
    266e:	1e 00 78    	mov.w     [w14], w0
    2670:	10 01 90    	mov.w     [w0+2], w2
    2672:	1e 00 78    	mov.w     [w14], w0
    2674:	10 00 90    	mov.w     [w0+2], w0
    2676:	90 00 78    	mov.w     [w0], w1
    2678:	00 40 20    	mov.w     #0x400, w0
    267a:	00 80 70    	ior.w     w1, w0, w0
    267c:	00 09 78    	mov.w     w0, [w2]

0000267e <.L119>:
    267e:	4f 04 78    	mov.w     [--w15], w8
    2680:	00 80 fa    	ulnk      
    2682:	00 00 06    	return    

00002684 <_uart_close>:
    2684:	02 00 fa    	lnk       #0x2
    2686:	00 0f 78    	mov.w     w0, [w14]
    2688:	1e 00 78    	mov.w     [w14], w0
    268a:	10 01 90    	mov.w     [w0+2], w2
    268c:	1e 00 78    	mov.w     [w14], w0
    268e:	10 00 90    	mov.w     [w0+2], w0
    2690:	90 00 78    	mov.w     [w0], w1
    2692:	f0 bf 2f    	mov.w     #0xfbff, w0
    2694:	00 80 60    	and.w     w1, w0, w0
    2696:	00 09 78    	mov.w     w0, [w2]
    2698:	1e 00 78    	mov.w     [w14], w0
    269a:	90 00 78    	mov.w     [w0], w1
    269c:	00 00 eb    	clr.w     w0
    269e:	80 08 78    	mov.w     w0, [w1]
    26a0:	1e 00 78    	mov.w     [w14], w0
    26a2:	e0 01 90    	mov.w     [w0+12], w3
    26a4:	1e 00 78    	mov.w     [w14], w0
    26a6:	60 00 90    	mov.w     [w0+12], w0
    26a8:	10 01 78    	mov.w     [w0], w2
    26aa:	1e 00 78    	mov.w     [w14], w0
    26ac:	60 48 90    	mov.b     [w0+14], w0
    26ae:	80 80 fb    	ze        w0, w1
    26b0:	10 00 20    	mov.w     #0x1, w0
    26b2:	01 00 dd    	sl.w      w0, w1, w0
    26b4:	00 80 ea    	com.w     w0, w0
    26b6:	00 00 61    	and.w     w2, w0, w0
    26b8:	80 09 78    	mov.w     w0, [w3]
    26ba:	1e 00 78    	mov.w     [w14], w0
    26bc:	e0 01 90    	mov.w     [w0+12], w3
    26be:	1e 00 78    	mov.w     [w14], w0
    26c0:	60 00 90    	mov.w     [w0+12], w0
    26c2:	10 01 78    	mov.w     [w0], w2
    26c4:	1e 00 78    	mov.w     [w14], w0
    26c6:	70 48 90    	mov.b     [w0+15], w0
    26c8:	80 80 fb    	ze        w0, w1
    26ca:	10 00 20    	mov.w     #0x1, w0
    26cc:	01 00 dd    	sl.w      w0, w1, w0
    26ce:	00 80 ea    	com.w     w0, w0
    26d0:	00 00 61    	and.w     w2, w0, w0
    26d2:	80 09 78    	mov.w     w0, [w3]
    26d4:	9e 00 78    	mov.w     [w14], w1
    26d6:	00 00 eb    	clr.w     w0
    26d8:	c0 18 98    	mov.w     w0, [w1+56]
    26da:	9e 00 78    	mov.w     [w14], w1
    26dc:	00 00 eb    	clr.w     w0
    26de:	d0 18 98    	mov.w     w0, [w1+58]
    26e0:	1e 00 78    	mov.w     [w14], w0
    26e2:	50 08 90    	mov.w     [w0+26], w0
    26e4:	00 00 e0    	cp0.w     w0
    26e6:	2f 00 32    	bra       Z, 0x2746 <.L121>
    26e8:	11 3a 80    	mov.w     0x742, w1
    26ea:	f0 0b 20    	mov.w     #0xbf, w0
    26ec:	00 81 60    	and.w     w1, w0, w2
    26ee:	61 04 20    	mov.w     #0x46, w1
    26f0:	70 05 20    	mov.w     #0x57, w0
    26f2:	23 74 20    	mov.w     #0x742, w3
    26f4:	81 49 78    	mov.b     w1, [w3]
    26f6:	80 49 78    	mov.b     w0, [w3]
    26f8:	82 49 78    	mov.b     w2, [w3]
    26fa:	1e 00 78    	mov.w     [w14], w0
    26fc:	50 08 90    	mov.w     [w0+26], w0
    26fe:	f0 01 90    	mov.w     [w0+14], w3
    2700:	1e 00 78    	mov.w     [w14], w0
    2702:	50 08 90    	mov.w     [w0+26], w0
    2704:	70 00 90    	mov.w     [w0+14], w0
    2706:	10 01 78    	mov.w     [w0], w2
    2708:	1e 00 78    	mov.w     [w14], w0
    270a:	50 08 90    	mov.w     [w0+26], w0
    270c:	20 48 90    	mov.b     [w0+10], w0
    270e:	80 80 fb    	ze        w0, w1
    2710:	f0 03 20    	mov.w     #0x3f, w0
    2712:	01 00 dd    	sl.w      w0, w1, w0
    2714:	00 80 ea    	com.w     w0, w0
    2716:	00 00 61    	and.w     w2, w0, w0
    2718:	80 09 78    	mov.w     w0, [w3]
    271a:	11 3a 80    	mov.w     0x742, w1
    271c:	00 04 20    	mov.w     #0x40, w0
    271e:	00 81 70    	ior.w     w1, w0, w2
    2720:	61 04 20    	mov.w     #0x46, w1
    2722:	70 05 20    	mov.w     #0x57, w0
    2724:	23 74 20    	mov.w     #0x742, w3
    2726:	81 49 78    	mov.b     w1, [w3]
    2728:	80 49 78    	mov.b     w0, [w3]
    272a:	82 49 78    	mov.b     w2, [w3]
    272c:	1e 00 78    	mov.w     [w14], w0
    272e:	d0 08 90    	mov.w     [w0+26], w1
    2730:	00 00 eb    	clr.w     w0
    2732:	80 08 98    	mov.w     w0, [w1+16]
    2734:	1e 00 78    	mov.w     [w14], w0
    2736:	50 08 90    	mov.w     [w0+26], w0
    2738:	33 03 07    	rcall     0x2da0 <_pin_digitalOut>
    273a:	1e 00 78    	mov.w     [w14], w0
    273c:	50 08 90    	mov.w     [w0+26], w0
    273e:	8b 03 07    	rcall     0x2e56 <_pin_set>
    2740:	9e 00 78    	mov.w     [w14], w1
    2742:	00 00 eb    	clr.w     w0
    2744:	d0 08 98    	mov.w     w0, [w1+26]

00002746 <.L121>:
    2746:	1e 00 78    	mov.w     [w14], w0
    2748:	60 08 90    	mov.w     [w0+28], w0
    274a:	00 00 e0    	cp0.w     w0
    274c:	28 00 32    	bra       Z, 0x279e <.L123>
    274e:	11 3a 80    	mov.w     0x742, w1
    2750:	f0 0b 20    	mov.w     #0xbf, w0
    2752:	00 81 60    	and.w     w1, w0, w2
    2754:	61 04 20    	mov.w     #0x46, w1
    2756:	70 05 20    	mov.w     #0x57, w0
    2758:	23 74 20    	mov.w     #0x742, w3
    275a:	81 49 78    	mov.b     w1, [w3]
    275c:	80 49 78    	mov.b     w0, [w3]
    275e:	82 49 78    	mov.b     w2, [w3]
    2760:	1e 00 78    	mov.w     [w14], w0
    2762:	80 09 90    	mov.w     [w0+16], w3
    2764:	1e 00 78    	mov.w     [w14], w0
    2766:	00 08 90    	mov.w     [w0+16], w0
    2768:	10 01 78    	mov.w     [w0], w2
    276a:	1e 00 78    	mov.w     [w14], w0
    276c:	40 50 90    	mov.b     [w0+20], w0
    276e:	80 80 fb    	ze        w0, w1
    2770:	f0 03 20    	mov.w     #0x3f, w0
    2772:	01 00 dd    	sl.w      w0, w1, w0
    2774:	00 00 71    	ior.w     w2, w0, w0
    2776:	80 09 78    	mov.w     w0, [w3]
    2778:	11 3a 80    	mov.w     0x742, w1
    277a:	00 04 20    	mov.w     #0x40, w0
    277c:	00 81 70    	ior.w     w1, w0, w2
    277e:	61 04 20    	mov.w     #0x46, w1
    2780:	70 05 20    	mov.w     #0x57, w0
    2782:	23 74 20    	mov.w     #0x742, w3
    2784:	81 49 78    	mov.b     w1, [w3]
    2786:	80 49 78    	mov.b     w0, [w3]
    2788:	82 49 78    	mov.b     w2, [w3]
    278a:	1e 00 78    	mov.w     [w14], w0
    278c:	e0 08 90    	mov.w     [w0+28], w1
    278e:	00 00 eb    	clr.w     w0
    2790:	80 08 98    	mov.w     w0, [w1+16]
    2792:	1e 00 78    	mov.w     [w14], w0
    2794:	60 08 90    	mov.w     [w0+28], w0
    2796:	dd 02 07    	rcall     0x2d52 <_pin_digitalIn>
    2798:	9e 00 78    	mov.w     [w14], w1
    279a:	00 00 eb    	clr.w     w0
    279c:	e0 08 98    	mov.w     w0, [w1+28]

0000279e <.L123>:
    279e:	1e 00 78    	mov.w     [w14], w0
    27a0:	70 08 90    	mov.w     [w0+30], w0
    27a2:	00 00 e0    	cp0.w     w0
    27a4:	2f 00 32    	bra       Z, 0x2804 <.L125>
    27a6:	11 3a 80    	mov.w     0x742, w1
    27a8:	f0 0b 20    	mov.w     #0xbf, w0
    27aa:	00 81 60    	and.w     w1, w0, w2
    27ac:	61 04 20    	mov.w     #0x46, w1
    27ae:	70 05 20    	mov.w     #0x57, w0
    27b0:	23 74 20    	mov.w     #0x742, w3
    27b2:	81 49 78    	mov.b     w1, [w3]
    27b4:	80 49 78    	mov.b     w0, [w3]
    27b6:	82 49 78    	mov.b     w2, [w3]
    27b8:	1e 00 78    	mov.w     [w14], w0
    27ba:	70 08 90    	mov.w     [w0+30], w0
    27bc:	f0 01 90    	mov.w     [w0+14], w3
    27be:	1e 00 78    	mov.w     [w14], w0
    27c0:	70 08 90    	mov.w     [w0+30], w0
    27c2:	70 00 90    	mov.w     [w0+14], w0
    27c4:	10 01 78    	mov.w     [w0], w2
    27c6:	1e 00 78    	mov.w     [w14], w0
    27c8:	70 08 90    	mov.w     [w0+30], w0
    27ca:	20 48 90    	mov.b     [w0+10], w0
    27cc:	80 80 fb    	ze        w0, w1
    27ce:	f0 03 20    	mov.w     #0x3f, w0
    27d0:	01 00 dd    	sl.w      w0, w1, w0
    27d2:	00 80 ea    	com.w     w0, w0
    27d4:	00 00 61    	and.w     w2, w0, w0
    27d6:	80 09 78    	mov.w     w0, [w3]
    27d8:	11 3a 80    	mov.w     0x742, w1
    27da:	00 04 20    	mov.w     #0x40, w0
    27dc:	00 81 70    	ior.w     w1, w0, w2
    27de:	61 04 20    	mov.w     #0x46, w1
    27e0:	70 05 20    	mov.w     #0x57, w0
    27e2:	23 74 20    	mov.w     #0x742, w3
    27e4:	81 49 78    	mov.b     w1, [w3]
    27e6:	80 49 78    	mov.b     w0, [w3]
    27e8:	82 49 78    	mov.b     w2, [w3]
    27ea:	1e 00 78    	mov.w     [w14], w0
    27ec:	f0 08 90    	mov.w     [w0+30], w1
    27ee:	00 00 eb    	clr.w     w0
    27f0:	80 08 98    	mov.w     w0, [w1+16]
    27f2:	1e 00 78    	mov.w     [w14], w0
    27f4:	70 08 90    	mov.w     [w0+30], w0
    27f6:	d4 02 07    	rcall     0x2da0 <_pin_digitalOut>
    27f8:	1e 00 78    	mov.w     [w14], w0
    27fa:	70 08 90    	mov.w     [w0+30], w0
    27fc:	2c 03 07    	rcall     0x2e56 <_pin_set>
    27fe:	9e 00 78    	mov.w     [w14], w1
    2800:	00 00 eb    	clr.w     w0
    2802:	f0 08 98    	mov.w     w0, [w1+30]

00002804 <.L125>:
    2804:	1e 00 78    	mov.w     [w14], w0
    2806:	00 10 90    	mov.w     [w0+32], w0
    2808:	00 00 e0    	cp0.w     w0
    280a:	28 00 32    	bra       Z, 0x285c <.L129>
    280c:	11 3a 80    	mov.w     0x742, w1
    280e:	f0 0b 20    	mov.w     #0xbf, w0
    2810:	00 81 60    	and.w     w1, w0, w2
    2812:	61 04 20    	mov.w     #0x46, w1
    2814:	70 05 20    	mov.w     #0x57, w0
    2816:	23 74 20    	mov.w     #0x742, w3
    2818:	81 49 78    	mov.b     w1, [w3]
    281a:	80 49 78    	mov.b     w0, [w3]
    281c:	82 49 78    	mov.b     w2, [w3]
    281e:	1e 00 78    	mov.w     [w14], w0
    2820:	90 09 90    	mov.w     [w0+18], w3
    2822:	1e 00 78    	mov.w     [w14], w0
    2824:	10 08 90    	mov.w     [w0+18], w0
    2826:	10 01 78    	mov.w     [w0], w2
    2828:	1e 00 78    	mov.w     [w14], w0
    282a:	50 50 90    	mov.b     [w0+21], w0
    282c:	80 80 fb    	ze        w0, w1
    282e:	f0 03 20    	mov.w     #0x3f, w0
    2830:	01 00 dd    	sl.w      w0, w1, w0
    2832:	00 00 71    	ior.w     w2, w0, w0
    2834:	80 09 78    	mov.w     w0, [w3]
    2836:	11 3a 80    	mov.w     0x742, w1
    2838:	00 04 20    	mov.w     #0x40, w0
    283a:	00 81 70    	ior.w     w1, w0, w2
    283c:	61 04 20    	mov.w     #0x46, w1
    283e:	70 05 20    	mov.w     #0x57, w0
    2840:	23 74 20    	mov.w     #0x742, w3
    2842:	81 49 78    	mov.b     w1, [w3]
    2844:	80 49 78    	mov.b     w0, [w3]
    2846:	82 49 78    	mov.b     w2, [w3]
    2848:	1e 00 78    	mov.w     [w14], w0
    284a:	80 10 90    	mov.w     [w0+32], w1
    284c:	00 00 eb    	clr.w     w0
    284e:	80 08 98    	mov.w     w0, [w1+16]
    2850:	1e 00 78    	mov.w     [w14], w0
    2852:	00 10 90    	mov.w     [w0+32], w0
    2854:	7e 02 07    	rcall     0x2d52 <_pin_digitalIn>
    2856:	9e 00 78    	mov.w     [w14], w1
    2858:	00 00 eb    	clr.w     w0
    285a:	80 10 98    	mov.w     w0, [w1+32]

0000285c <.L129>:
    285c:	00 80 fa    	ulnk      
    285e:	00 00 06    	return    

00002860 <_uart_putc>:
    2860:	04 00 fa    	lnk       #0x4
    2862:	00 0f 78    	mov.w     w0, [w14]
    2864:	21 47 98    	mov.b     w1, [w14+2]
    2866:	1e 00 78    	mov.w     [w14], w0
    2868:	40 18 90    	mov.w     [w0+56], w0
    286a:	00 00 e0    	cp0.w     w0
    286c:	05 00 32    	bra       Z, 0x2878 <.L133>
    286e:	1e 00 78    	mov.w     [w14], w0
    2870:	40 19 90    	mov.w     [w0+56], w2
    2872:	ae 40 90    	mov.b     [w14+2], w1
    2874:	1e 00 78    	mov.w     [w14], w0
    2876:	02 00 01    	call      w2

00002878 <.L133>:
    2878:	00 80 fa    	ulnk      
    287a:	00 00 06    	return    

0000287c <_uart_getc>:
    287c:	04 00 fa    	lnk       #0x4
    287e:	00 0f 78    	mov.w     w0, [w14]
    2880:	1e 00 78    	mov.w     [w14], w0
    2882:	50 18 90    	mov.w     [w0+58], w0
    2884:	00 00 e0    	cp0.w     w0
    2886:	07 00 32    	bra       Z, 0x2896 <.L135>
    2888:	1e 00 78    	mov.w     [w14], w0
    288a:	d0 18 90    	mov.w     [w0+58], w1
    288c:	1e 00 78    	mov.w     [w14], w0
    288e:	01 00 01    	call      w1
    2890:	00 80 fb    	ze        w0, w0
    2892:	10 07 98    	mov.w     w0, [w14+2]
    2894:	02 00 37    	bra       0x289a <.L137>

00002896 <.L135>:
    2896:	f0 0f 20    	mov.w     #0xff, w0
    2898:	10 07 98    	mov.w     w0, [w14+2]

0000289a <.L137>:
    289a:	1e 00 90    	mov.w     [w14+2], w0
    289c:	00 80 fa    	ulnk      
    289e:	00 00 06    	return    

000028a0 <_uart_flushTxBuffer>:
    28a0:	02 00 fa    	lnk       #0x2
    28a2:	00 0f 78    	mov.w     w0, [w14]
    28a4:	1e 00 78    	mov.w     [w14], w0
    28a6:	10 00 90    	mov.w     [w0+2], w0
    28a8:	10 00 78    	mov.w     [w0], w0
    28aa:	4a 00 de    	lsr.w     w0, #0xa, w0
    28ac:	00 00 a2    	btg.w     w0, #0x0
    28ae:	61 00 60    	and.w     w0, #0x1, w0
    28b0:	00 04 e0    	cp0.b     w0
    28b2:	08 00 32    	bra       Z, 0x28c4 <.L142>
    28b4:	1e 00 78    	mov.w     [w14], w0
    28b6:	10 01 90    	mov.w     [w0+2], w2
    28b8:	1e 00 78    	mov.w     [w14], w0
    28ba:	10 00 90    	mov.w     [w0+2], w0
    28bc:	90 00 78    	mov.w     [w0], w1
    28be:	00 40 20    	mov.w     #0x400, w0
    28c0:	00 80 70    	ior.w     w1, w0, w0
    28c2:	00 09 78    	mov.w     w0, [w2]

000028c4 <.L142>:
    28c4:	00 80 fa    	ulnk      
    28c6:	00 00 06    	return    

000028c8 <_uart_puts>:
    28c8:	04 00 fa    	lnk       #0x4
    28ca:	00 0f 78    	mov.w     w0, [w14]
    28cc:	11 07 98    	mov.w     w1, [w14+2]
    28ce:	07 00 37    	bra       0x28de <.L144>

000028d0 <.L145>:
    28d0:	1e 00 90    	mov.w     [w14+2], w0
    28d2:	90 40 78    	mov.b     [w0], w1
    28d4:	1e 00 90    	mov.w     [w14+2], w0
    28d6:	00 00 e8    	inc.w     w0, w0
    28d8:	10 07 98    	mov.w     w0, [w14+2]
    28da:	1e 00 78    	mov.w     [w14], w0
    28dc:	c1 ff 07    	rcall     0x2860 <_uart_putc>

000028de <.L144>:
    28de:	1e 00 90    	mov.w     [w14+2], w0
    28e0:	10 40 78    	mov.b     [w0], w0
    28e2:	00 04 e0    	cp0.b     w0
    28e4:	f5 ff 3a    	bra       NZ, 0x28d0 <.L145>
    28e6:	1e 00 78    	mov.w     [w14], w0
    28e8:	db ff 07    	rcall     0x28a0 <_uart_flushTxBuffer>
    28ea:	00 80 fa    	ulnk      
    28ec:	00 00 06    	return    

000028ee <_uart_gets>:
    28ee:	0a 00 fa    	lnk       #0xa
    28f0:	20 07 98    	mov.w     w0, [w14+4]
    28f2:	31 07 98    	mov.w     w1, [w14+6]
    28f4:	42 07 98    	mov.w     w2, [w14+8]
    28f6:	4e 00 90    	mov.w     [w14+8], w0
    28f8:	00 00 e0    	cp0.w     w0
    28fa:	82 00 32    	bra       Z, 0x2a00 <.L169>
    28fc:	4e 00 90    	mov.w     [w14+8], w0
    28fe:	e1 0f 50    	sub.w     w0, #0x1, [w15]
    2900:	04 00 3a    	bra       NZ, 0x290a <.L151>
    2902:	be 00 90    	mov.w     [w14+6], w1
    2904:	00 40 eb    	clr.b     w0
    2906:	80 48 78    	mov.b     w0, [w1]
    2908:	7b 00 37    	bra       0x2a00 <.L169>

0000290a <.L151>:
    290a:	b1 c1 b3    	mov.b     #0x1b, w1
    290c:	2e 00 90    	mov.w     [w14+4], w0
    290e:	a8 ff 07    	rcall     0x2860 <_uart_putc>
    2910:	71 c3 b3    	mov.b     #0x37, w1
    2912:	2e 00 90    	mov.w     [w14+4], w0
    2914:	a5 ff 07    	rcall     0x2860 <_uart_putc>
    2916:	2e 00 90    	mov.w     [w14+4], w0
    2918:	c3 ff 07    	rcall     0x28a0 <_uart_flushTxBuffer>
    291a:	3e 00 90    	mov.w     [w14+6], w0
    291c:	10 07 98    	mov.w     w0, [w14+2]
    291e:	4e 00 90    	mov.w     [w14+8], w0
    2920:	00 0f 78    	mov.w     w0, [w14]
    2922:	00 00 37    	bra       0x2924 <.L153>

00002924 <.L153>:
    2924:	2e 00 90    	mov.w     [w14+4], w0
    2926:	aa ff 07    	rcall     0x287c <_uart_getc>
    2928:	80 40 78    	mov.b     w0, w1
    292a:	3e 00 90    	mov.w     [w14+6], w0
    292c:	01 48 78    	mov.b     w1, [w0]
    292e:	3e 00 90    	mov.w     [w14+6], w0
    2930:	10 40 78    	mov.b     [w0], w0
    2932:	ed 4f 50    	sub.b     w0, #0xd, [w15]
    2934:	5a 00 32    	bra       Z, 0x29ea <.L154>
    2936:	3e 00 90    	mov.w     [w14+6], w0
    2938:	10 40 78    	mov.b     [w0], w0
    293a:	fb 4f 50    	sub.b     w0, #0x1b, [w15]
    293c:	16 00 3a    	bra       NZ, 0x296a <.L156>
    293e:	b1 c1 b3    	mov.b     #0x1b, w1
    2940:	2e 00 90    	mov.w     [w14+4], w0
    2942:	8e ff 07    	rcall     0x2860 <_uart_putc>
    2944:	81 c3 b3    	mov.b     #0x38, w1
    2946:	2e 00 90    	mov.w     [w14+4], w0
    2948:	8b ff 07    	rcall     0x2860 <_uart_putc>
    294a:	b1 c1 b3    	mov.b     #0x1b, w1
    294c:	2e 00 90    	mov.w     [w14+4], w0
    294e:	88 ff 07    	rcall     0x2860 <_uart_putc>
    2950:	b1 c5 b3    	mov.b     #0x5b, w1
    2952:	2e 00 90    	mov.w     [w14+4], w0
    2954:	85 ff 07    	rcall     0x2860 <_uart_putc>
    2956:	b1 c4 b3    	mov.b     #0x4b, w1
    2958:	2e 00 90    	mov.w     [w14+4], w0
    295a:	82 ff 07    	rcall     0x2860 <_uart_putc>
    295c:	2e 00 90    	mov.w     [w14+4], w0
    295e:	a0 ff 07    	rcall     0x28a0 <_uart_flushTxBuffer>
    2960:	1e 00 90    	mov.w     [w14+2], w0
    2962:	30 07 98    	mov.w     w0, [w14+6]
    2964:	4e 00 90    	mov.w     [w14+8], w0
    2966:	00 0f 78    	mov.w     w0, [w14]
    2968:	dd ff 37    	bra       0x2924 <.L153>

0000296a <.L156>:
    296a:	3e 00 90    	mov.w     [w14+6], w0
    296c:	10 40 78    	mov.b     [w0], w0
    296e:	e8 4f 50    	sub.b     w0, #0x8, [w15]
    2970:	05 00 32    	bra       Z, 0x297c <.L159>
    2972:	3e 00 90    	mov.w     [w14+6], w0
    2974:	90 40 78    	mov.b     [w0], w1
    2976:	f0 c7 b3    	mov.b     #0x7f, w0
    2978:	80 cf 50    	sub.b     w1, w0, [w15]
    297a:	1a 00 3a    	bra       NZ, 0x29b0 <.L161>

0000297c <.L159>:
    297c:	be 00 90    	mov.w     [w14+6], w1
    297e:	1e 00 90    	mov.w     [w14+2], w0
    2980:	80 8f 50    	sub.w     w1, w0, [w15]
    2982:	10 00 36    	bra       LEU, 0x29a4 <.L162>
    2984:	81 c0 b3    	mov.b     #0x8, w1
    2986:	2e 00 90    	mov.w     [w14+4], w0
    2988:	6b ff 07    	rcall     0x2860 <_uart_putc>
    298a:	01 c2 b3    	mov.b     #0x20, w1
    298c:	2e 00 90    	mov.w     [w14+4], w0
    298e:	68 ff 07    	rcall     0x2860 <_uart_putc>
    2990:	81 c0 b3    	mov.b     #0x8, w1
    2992:	2e 00 90    	mov.w     [w14+4], w0
    2994:	65 ff 07    	rcall     0x2860 <_uart_putc>
    2996:	2e 00 90    	mov.w     [w14+4], w0
    2998:	83 ff 07    	rcall     0x28a0 <_uart_flushTxBuffer>
    299a:	3e 00 90    	mov.w     [w14+6], w0
    299c:	00 00 e9    	dec.w     w0, w0
    299e:	30 07 98    	mov.w     w0, [w14+6]
    29a0:	1e 0f e8    	inc.w     [w14], [w14]
    29a2:	c0 ff 37    	bra       0x2924 <.L153>

000029a4 <.L162>:
    29a4:	71 c0 b3    	mov.b     #0x7, w1
    29a6:	2e 00 90    	mov.w     [w14+4], w0
    29a8:	5b ff 07    	rcall     0x2860 <_uart_putc>
    29aa:	2e 00 90    	mov.w     [w14+4], w0
    29ac:	79 ff 07    	rcall     0x28a0 <_uart_flushTxBuffer>
    29ae:	ba ff 37    	bra       0x2924 <.L153>

000029b0 <.L161>:
    29b0:	10 00 20    	mov.w     #0x1, w0
    29b2:	9e 0f 10    	subr.w    w0, [w14], [w15]
    29b4:	06 00 3a    	bra       NZ, 0x29c2 <.L165>
    29b6:	71 c0 b3    	mov.b     #0x7, w1
    29b8:	2e 00 90    	mov.w     [w14+4], w0
    29ba:	52 ff 07    	rcall     0x2860 <_uart_putc>
    29bc:	2e 00 90    	mov.w     [w14+4], w0
    29be:	70 ff 07    	rcall     0x28a0 <_uart_flushTxBuffer>
    29c0:	b1 ff 37    	bra       0x2924 <.L153>

000029c2 <.L165>:
    29c2:	3e 00 90    	mov.w     [w14+6], w0
    29c4:	10 40 78    	mov.b     [w0], w0
    29c6:	ff 4f 50    	sub.b     w0, #0x1f, [w15]
    29c8:	ad ff 36    	bra       LEU, 0x2924 <.L153>
    29ca:	3e 00 90    	mov.w     [w14+6], w0
    29cc:	90 40 78    	mov.b     [w0], w1
    29ce:	e0 c7 b3    	mov.b     #0x7e, w0
    29d0:	80 cf 50    	sub.b     w1, w0, [w15]
    29d2:	a8 ff 3e    	bra       GTU, 0x2924 <.L153>
    29d4:	3e 00 90    	mov.w     [w14+6], w0
    29d6:	90 40 78    	mov.b     [w0], w1
    29d8:	2e 00 90    	mov.w     [w14+4], w0
    29da:	42 ff 07    	rcall     0x2860 <_uart_putc>
    29dc:	2e 00 90    	mov.w     [w14+4], w0
    29de:	60 ff 07    	rcall     0x28a0 <_uart_flushTxBuffer>
    29e0:	3e 00 90    	mov.w     [w14+6], w0
    29e2:	00 00 e8    	inc.w     w0, w0
    29e4:	30 07 98    	mov.w     w0, [w14+6]
    29e6:	1e 0f e9    	dec.w     [w14], [w14]
    29e8:	9d ff 37    	bra       0x2924 <.L153>

000029ea <.L154>:
    29ea:	be 00 90    	mov.w     [w14+6], w1
    29ec:	00 40 eb    	clr.b     w0
    29ee:	80 48 78    	mov.b     w0, [w1]
    29f0:	a1 c0 b3    	mov.b     #0xa, w1
    29f2:	2e 00 90    	mov.w     [w14+4], w0
    29f4:	35 ff 07    	rcall     0x2860 <_uart_putc>
    29f6:	d1 c0 b3    	mov.b     #0xd, w1
    29f8:	2e 00 90    	mov.w     [w14+4], w0
    29fa:	32 ff 07    	rcall     0x2860 <_uart_putc>
    29fc:	2e 00 90    	mov.w     [w14+4], w0
    29fe:	50 ff 07    	rcall     0x28a0 <_uart_flushTxBuffer>

00002a00 <.L169>:
    2a00:	00 80 fa    	ulnk      
    2a02:	00 00 06    	return    

00002a04 <___digitalWrite>:
#include "pin.h"

_PIN D[14], A[6];

void __digitalWrite(_PIN *self, uint16_t val) {
    2a04:	04 00 fa    	lnk       #0x4
    2a06:	00 0f 78    	mov.w     w0, [w14]
    2a08:	11 07 98    	mov.w     w1, [w14+2]
    if (val)
    2a0a:	1e 00 90    	mov.w     [w14+2], w0
    2a0c:	00 00 e0    	cp0.w     w0
    2a0e:	0d 00 32    	bra       Z, 0x2a2a <.L2>
        bitset(self->port, self->bit);
    2a10:	1e 00 78    	mov.w     [w14], w0
    2a12:	90 01 78    	mov.w     [w0], w3
    2a14:	1e 00 78    	mov.w     [w14], w0
    2a16:	10 00 78    	mov.w     [w0], w0
    2a18:	10 01 78    	mov.w     [w0], w2
    2a1a:	1e 00 78    	mov.w     [w14], w0
    2a1c:	60 40 90    	mov.b     [w0+6], w0
    2a1e:	80 80 fb    	ze        w0, w1
    2a20:	10 00 20    	mov.w     #0x1, w0
    2a22:	01 00 dd    	sl.w      w0, w1, w0
    2a24:	00 00 71    	ior.w     w2, w0, w0
    2a26:	80 09 78    	mov.w     w0, [w3]
    2a28:	0d 00 37    	bra       0x2a44 <.L5>

00002a2a <.L2>:
    else
        bitclear(self->port, self->bit);
    2a2a:	1e 00 78    	mov.w     [w14], w0
    2a2c:	90 01 78    	mov.w     [w0], w3
    2a2e:	1e 00 78    	mov.w     [w14], w0
    2a30:	10 00 78    	mov.w     [w0], w0
    2a32:	10 01 78    	mov.w     [w0], w2
    2a34:	1e 00 78    	mov.w     [w14], w0
    2a36:	60 40 90    	mov.b     [w0+6], w0
    2a38:	80 80 fb    	ze        w0, w1
    2a3a:	10 00 20    	mov.w     #0x1, w0
    2a3c:	01 00 dd    	sl.w      w0, w1, w0
    2a3e:	00 80 ea    	com.w     w0, w0
    2a40:	00 00 61    	and.w     w2, w0, w0
    2a42:	80 09 78    	mov.w     w0, [w3]

00002a44 <.L5>:
}
    2a44:	00 80 fa    	ulnk      
    2a46:	00 00 06    	return    

00002a48 <___digitalRead>:

uint16_t __digitalRead(_PIN *self) {
    2a48:	04 00 fa    	lnk       #0x4
    2a4a:	00 0f 78    	mov.w     w0, [w14]
    return bitread(self->port, self->bit);
    2a4c:	1e 00 78    	mov.w     [w14], w0
    2a4e:	10 00 78    	mov.w     [w0], w0
    2a50:	10 01 78    	mov.w     [w0], w2
    2a52:	1e 00 78    	mov.w     [w14], w0
    2a54:	60 40 90    	mov.b     [w0+6], w0
    2a56:	80 80 fb    	ze        w0, w1
    2a58:	10 00 20    	mov.w     #0x1, w0
    2a5a:	01 00 dd    	sl.w      w0, w1, w0
    2a5c:	00 00 61    	and.w     w2, w0, w0
    2a5e:	10 07 98    	mov.w     w0, [w14+2]
    2a60:	1e 00 90    	mov.w     [w14+2], w0
    2a62:	00 00 e0    	cp0.w     w0
    2a64:	02 00 32    	bra       Z, 0x2a6a <.L7>
    2a66:	10 00 20    	mov.w     #0x1, w0
    2a68:	10 07 98    	mov.w     w0, [w14+2]

00002a6a <.L7>:
    2a6a:	1e 00 90    	mov.w     [w14+2], w0
}
    2a6c:	00 80 fa    	ulnk      
    2a6e:	00 00 06    	return    

00002a70 <___analogRead>:

uint16_t __analogRead(_PIN *self) {
    2a70:	02 00 fa    	lnk       #0x2
    2a72:	00 0f 78    	mov.w     w0, [w14]
    AD1CHS = self->annum;
    2a74:	1e 00 78    	mov.w     [w14], w0
    2a76:	40 00 90    	mov.w     [w0+8], w0
    2a78:	40 19 88    	mov.w     w0, 0x328
    AD1CON1bits.SAMP = 1;
    2a7a:	20 23 a8    	bset.b    0x320, #0x1

00002a7c <.L10>:
    while (AD1CON1bits.DONE==0) {}
    2a7c:	20 c3 bf    	mov.b     0x320, WREG
    2a7e:	61 40 60    	and.b     w0, #0x1, w0
    2a80:	00 04 e0    	cp0.b     w0
    2a82:	fc ff 32    	bra       Z, 0x2a7c <.L10>
    return ADC1BUF0;
    2a84:	00 18 80    	mov.w     0x300, w0
}
    2a86:	00 80 fa    	ulnk      
    2a88:	00 00 06    	return    

00002a8a <_init_pin>:

void init_pin(void) {
    2a8a:	02 00 fa    	lnk       #0x2
    2a8c:	88 9f be    	mov.d     w8, [w15++]
    uint16_t i;

    pin_init(&D[0], (uint16_t *)&PORTD, (uint16_t *)&TRISD, 
    2a8e:	40 6d 20    	mov.w     #0x6d4, w0
    2a90:	82 2d 20    	mov.w     #0x2d8, w2
    2a92:	a1 2d 20    	mov.w     #0x2da, w1
    2a94:	80 1f 78    	mov.w     w0, [w15++]
    2a96:	47 01 20    	mov.w     #0x14, w7
    2a98:	00 43 eb    	clr.b     w6
    2a9a:	80 82 eb    	setm.w    w5
    2a9c:	54 c0 b3    	mov.b     #0x5, w4
    2a9e:	80 01 eb    	clr.w     w3
    2aa0:	00 80 20    	mov.w     #0x800, w0
    2aa2:	2b 01 07    	rcall     0x2cfa <_pin_init>
    2aa4:	8f 87 e9    	dec2.w    w15, w15
             (uint16_t *)NULL, 5, -1, 0, 20, (uint16_t *)&RPOR10);
    pin_init(&D[1], (uint16_t *)&PORTD, (uint16_t *)&TRISD, 
    2aa6:	80 6d 20    	mov.w     #0x6d8, w0
    2aa8:	82 2d 20    	mov.w     #0x2d8, w2
    2aaa:	a1 2d 20    	mov.w     #0x2da, w1
    2aac:	68 81 20    	mov.w     #0x816, w8
    2aae:	80 1f 78    	mov.w     w0, [w15++]
    2ab0:	97 01 20    	mov.w     #0x19, w7
    2ab2:	86 c0 b3    	mov.b     #0x8, w6
    2ab4:	80 82 eb    	setm.w    w5
    2ab6:	44 c0 b3    	mov.b     #0x4, w4
    2ab8:	80 01 eb    	clr.w     w3
    2aba:	08 00 78    	mov.w     w8, w0
    2abc:	1e 01 07    	rcall     0x2cfa <_pin_init>
    2abe:	8f 87 e9    	dec2.w    w15, w15
             (uint16_t *)NULL, 4, -1, 8, 25, (uint16_t *)&RPOR12);
    pin_init(&D[2], (uint16_t *)&PORTF, (uint16_t *)&TRISF, 
    2ac0:	a0 6c 20    	mov.w     #0x6ca, w0
    2ac2:	82 2e 20    	mov.w     #0x2e8, w2
    2ac4:	a1 2e 20    	mov.w     #0x2ea, w1
    2ac6:	c8 82 20    	mov.w     #0x82c, w8
    2ac8:	80 1f 78    	mov.w     w0, [w15++]
    2aca:	a7 00 20    	mov.w     #0xa, w7
    2acc:	00 43 eb    	clr.b     w6
    2ace:	80 82 eb    	setm.w    w5
    2ad0:	44 c0 b3    	mov.b     #0x4, w4
    2ad2:	80 01 eb    	clr.w     w3
    2ad4:	08 00 78    	mov.w     w8, w0
    2ad6:	11 01 07    	rcall     0x2cfa <_pin_init>
    2ad8:	8f 87 e9    	dec2.w    w15, w15
             (uint16_t *)NULL, 4, -1, 0, 10, (uint16_t *)&RPOR5);
    pin_init(&D[3], (uint16_t *)&PORTF, (uint16_t *)&TRISF, 
    2ada:	00 6d 20    	mov.w     #0x6d0, w0
    2adc:	82 2e 20    	mov.w     #0x2e8, w2
    2ade:	a1 2e 20    	mov.w     #0x2ea, w1
    2ae0:	28 84 20    	mov.w     #0x842, w8
    2ae2:	80 1f 78    	mov.w     w0, [w15++]
    2ae4:	17 01 20    	mov.w     #0x11, w7
    2ae6:	86 c0 b3    	mov.b     #0x8, w6
    2ae8:	80 82 eb    	setm.w    w5
    2aea:	54 c0 b3    	mov.b     #0x5, w4
    2aec:	80 01 eb    	clr.w     w3
    2aee:	08 00 78    	mov.w     w8, w0
    2af0:	04 01 07    	rcall     0x2cfa <_pin_init>
    2af2:	8f 87 e9    	dec2.w    w15, w15
             (uint16_t *)NULL, 5, -1, 8, 17, (uint16_t *)&RPOR8);
    pin_init(&D[4], (uint16_t *)&PORTB, (uint16_t *)&TRISB, 
    2af4:	c0 6d 20    	mov.w     #0x6dc, w0
    2af6:	21 4e 20    	mov.w     #0x4e2, w1
    2af8:	82 2c 20    	mov.w     #0x2c8, w2
    2afa:	a8 2c 20    	mov.w     #0x2ca, w8
    2afc:	89 85 20    	mov.w     #0x858, w9
    2afe:	80 1f 78    	mov.w     w0, [w15++]
    2b00:	d7 01 20    	mov.w     #0x1d, w7
    2b02:	86 c0 b3    	mov.b     #0x8, w6
    2b04:	f5 00 20    	mov.w     #0xf, w5
    2b06:	f4 c0 b3    	mov.b     #0xf, w4
    2b08:	81 01 78    	mov.w     w1, w3
    2b0a:	88 00 78    	mov.w     w8, w1
    2b0c:	09 00 78    	mov.w     w9, w0
    2b0e:	f5 00 07    	rcall     0x2cfa <_pin_init>
    2b10:	8f 87 e9    	dec2.w    w15, w15
             (uint16_t *)&ANSB, 15, 15, 8, 29, (uint16_t *)&RPOR14);
    pin_init(&D[5], (uint16_t *)&PORTF, (uint16_t *)&TRISF, 
    2b12:	00 6d 20    	mov.w     #0x6d0, w0
    2b14:	82 2e 20    	mov.w     #0x2e8, w2
    2b16:	a1 2e 20    	mov.w     #0x2ea, w1
    2b18:	e8 86 20    	mov.w     #0x86e, w8
    2b1a:	80 1f 78    	mov.w     w0, [w15++]
    2b1c:	07 01 20    	mov.w     #0x10, w7
    2b1e:	00 43 eb    	clr.b     w6
    2b20:	80 82 eb    	setm.w    w5
    2b22:	34 c0 b3    	mov.b     #0x3, w4
    2b24:	80 01 eb    	clr.w     w3
    2b26:	08 00 78    	mov.w     w8, w0
    2b28:	e8 00 07    	rcall     0x2cfa <_pin_init>
    2b2a:	8f 87 e9    	dec2.w    w15, w15
             (uint16_t *)NULL, 3, -1, 0, 16, (uint16_t *)&RPOR8);
    pin_init(&D[6], (uint16_t *)&PORTD, (uint16_t *)&TRISD, 
    2b2c:	20 6c 20    	mov.w     #0x6c2, w0
    2b2e:	82 2d 20    	mov.w     #0x2d8, w2
    2b30:	a1 2d 20    	mov.w     #0x2da, w1
    2b32:	48 88 20    	mov.w     #0x884, w8
    2b34:	80 1f 78    	mov.w     w0, [w15++]
    2b36:	27 00 20    	mov.w     #0x2, w7
    2b38:	00 43 eb    	clr.b     w6
    2b3a:	80 82 eb    	setm.w    w5
    2b3c:	84 c0 b3    	mov.b     #0x8, w4
    2b3e:	80 01 eb    	clr.w     w3
    2b40:	08 00 78    	mov.w     w8, w0
    2b42:	db 00 07    	rcall     0x2cfa <_pin_init>
    2b44:	8f 87 e9    	dec2.w    w15, w15
             (uint16_t *)NULL, 8, -1, 0, 2, (uint16_t *)&RPOR1);
    pin_init(&D[7], (uint16_t *)&PORTD, (uint16_t *)&TRISD, 
    2b46:	c0 6c 20    	mov.w     #0x6cc, w0
    2b48:	82 2d 20    	mov.w     #0x2d8, w2
    2b4a:	a1 2d 20    	mov.w     #0x2da, w1
    2b4c:	a8 89 20    	mov.w     #0x89a, w8
    2b4e:	80 1f 78    	mov.w     w0, [w15++]
    2b50:	c7 00 20    	mov.w     #0xc, w7
    2b52:	00 43 eb    	clr.b     w6
    2b54:	80 82 eb    	setm.w    w5
    2b56:	b4 c0 b3    	mov.b     #0xb, w4
    2b58:	80 01 eb    	clr.w     w3
    2b5a:	08 00 78    	mov.w     w8, w0
    2b5c:	ce 00 07    	rcall     0x2cfa <_pin_init>
    2b5e:	8f 87 e9    	dec2.w    w15, w15
             (uint16_t *)NULL, 11, -1, 0, 12, (uint16_t *)&RPOR6);
    pin_init(&D[8], (uint16_t *)&PORTD, (uint16_t *)&TRISD, 
    2b60:	40 6c 20    	mov.w     #0x6c4, w0
    2b62:	82 2d 20    	mov.w     #0x2d8, w2
    2b64:	a1 2d 20    	mov.w     #0x2da, w1
    2b66:	08 8b 20    	mov.w     #0x8b0, w8
    2b68:	80 1f 78    	mov.w     w0, [w15++]
    2b6a:	47 00 20    	mov.w     #0x4, w7
    2b6c:	00 43 eb    	clr.b     w6
    2b6e:	80 82 eb    	setm.w    w5
    2b70:	94 c0 b3    	mov.b     #0x9, w4
    2b72:	80 01 eb    	clr.w     w3
    2b74:	08 00 78    	mov.w     w8, w0
    2b76:	c1 00 07    	rcall     0x2cfa <_pin_init>
    2b78:	8f 87 e9    	dec2.w    w15, w15
             (uint16_t *)NULL, 9, -1, 0, 4, (uint16_t *)&RPOR2);
    pin_init(&D[9], (uint16_t *)&PORTD, (uint16_t *)&TRISD, 
    2b7a:	20 6c 20    	mov.w     #0x6c2, w0
    2b7c:	82 2d 20    	mov.w     #0x2d8, w2
    2b7e:	a1 2d 20    	mov.w     #0x2da, w1
    2b80:	68 8c 20    	mov.w     #0x8c6, w8
    2b82:	80 1f 78    	mov.w     w0, [w15++]
    2b84:	37 00 20    	mov.w     #0x3, w7
    2b86:	86 c0 b3    	mov.b     #0x8, w6
    2b88:	80 82 eb    	setm.w    w5
    2b8a:	a4 c0 b3    	mov.b     #0xa, w4
    2b8c:	80 01 eb    	clr.w     w3
    2b8e:	08 00 78    	mov.w     w8, w0
    2b90:	b4 00 07    	rcall     0x2cfa <_pin_init>
    2b92:	8f 87 e9    	dec2.w    w15, w15
             (uint16_t *)NULL, 10, -1, 8, 3, (uint16_t *)&RPOR1);
    pin_init(&D[10], (uint16_t *)&PORTD, (uint16_t *)&TRISD, 
    2b94:	a0 6c 20    	mov.w     #0x6ca, w0
    2b96:	82 2d 20    	mov.w     #0x2d8, w2
    2b98:	a1 2d 20    	mov.w     #0x2da, w1
    2b9a:	c8 8d 20    	mov.w     #0x8dc, w8
    2b9c:	80 1f 78    	mov.w     w0, [w15++]
    2b9e:	b7 00 20    	mov.w     #0xb, w7
    2ba0:	86 c0 b3    	mov.b     #0x8, w6
    2ba2:	80 82 eb    	setm.w    w5
    2ba4:	00 42 eb    	clr.b     w4
    2ba6:	80 01 eb    	clr.w     w3
    2ba8:	08 00 78    	mov.w     w8, w0
    2baa:	a7 00 07    	rcall     0x2cfa <_pin_init>
    2bac:	8f 87 e9    	dec2.w    w15, w15
             (uint16_t *)NULL, 0, -1, 8, 11, (uint16_t *)&RPOR5);
    pin_init(&D[11], (uint16_t *)&PORTD, (uint16_t *)&TRISD, 
    2bae:	80 6d 20    	mov.w     #0x6d8, w0
    2bb0:	82 2d 20    	mov.w     #0x2d8, w2
    2bb2:	a1 2d 20    	mov.w     #0x2da, w1
    2bb4:	28 8f 20    	mov.w     #0x8f2, w8
    2bb6:	80 1f 78    	mov.w     w0, [w15++]
    2bb8:	87 01 20    	mov.w     #0x18, w7
    2bba:	00 43 eb    	clr.b     w6
    2bbc:	80 82 eb    	setm.w    w5
    2bbe:	14 c0 b3    	mov.b     #0x1, w4
    2bc0:	80 01 eb    	clr.w     w3
    2bc2:	08 00 78    	mov.w     w8, w0
    2bc4:	9a 00 07    	rcall     0x2cfa <_pin_init>
    2bc6:	8f 87 e9    	dec2.w    w15, w15
             (uint16_t *)NULL, 1, -1, 0, 24, (uint16_t *)&RPOR12);
    pin_init(&D[12], (uint16_t *)&PORTD, (uint16_t *)&TRISD, 
    2bc8:	60 6d 20    	mov.w     #0x6d6, w0
    2bca:	82 2d 20    	mov.w     #0x2d8, w2
    2bcc:	a1 2d 20    	mov.w     #0x2da, w1
    2bce:	88 90 20    	mov.w     #0x908, w8
    2bd0:	80 1f 78    	mov.w     w0, [w15++]
    2bd2:	77 01 20    	mov.w     #0x17, w7
    2bd4:	86 c0 b3    	mov.b     #0x8, w6
    2bd6:	80 82 eb    	setm.w    w5
    2bd8:	24 c0 b3    	mov.b     #0x2, w4
    2bda:	80 01 eb    	clr.w     w3
    2bdc:	08 00 78    	mov.w     w8, w0
    2bde:	8d 00 07    	rcall     0x2cfa <_pin_init>
    2be0:	8f 87 e9    	dec2.w    w15, w15
             (uint16_t *)NULL, 2, -1, 8, 23, (uint16_t *)&RPOR11);
    pin_init(&D[13], (uint16_t *)&PORTD, (uint16_t *)&TRISD, 
    2be2:	60 6d 20    	mov.w     #0x6d6, w0
    2be4:	82 2d 20    	mov.w     #0x2d8, w2
    2be6:	a1 2d 20    	mov.w     #0x2da, w1
    2be8:	e8 91 20    	mov.w     #0x91e, w8
    2bea:	80 1f 78    	mov.w     w0, [w15++]
    2bec:	67 01 20    	mov.w     #0x16, w7
    2bee:	00 43 eb    	clr.b     w6
    2bf0:	80 82 eb    	setm.w    w5
    2bf2:	34 c0 b3    	mov.b     #0x3, w4
    2bf4:	80 01 eb    	clr.w     w3
    2bf6:	08 00 78    	mov.w     w8, w0
    2bf8:	80 00 07    	rcall     0x2cfa <_pin_init>
    2bfa:	8f 87 e9    	dec2.w    w15, w15
             (uint16_t *)NULL, 3, -1, 0, 22, (uint16_t *)&RPOR11);
    pin_init(&A[0], (uint16_t *)&PORTB, (uint16_t *)&TRISB, 
    2bfc:	00 6c 20    	mov.w     #0x6c0, w0
    2bfe:	21 4e 20    	mov.w     #0x4e2, w1
    2c00:	82 2c 20    	mov.w     #0x2c8, w2
    2c02:	a8 2c 20    	mov.w     #0x2ca, w8
    2c04:	80 1f 78    	mov.w     w0, [w15++]
    2c06:	80 03 eb    	clr.w     w7
    2c08:	00 43 eb    	clr.b     w6
    2c0a:	80 02 eb    	clr.w     w5
    2c0c:	00 42 eb    	clr.b     w4
    2c0e:	81 01 78    	mov.w     w1, w3
    2c10:	88 00 78    	mov.w     w8, w1
    2c12:	40 93 20    	mov.w     #0x934, w0
    2c14:	72 00 07    	rcall     0x2cfa <_pin_init>
    2c16:	8f 87 e9    	dec2.w    w15, w15
             (uint16_t *)&ANSB, 0, 0, 0, 0, (uint16_t *)&RPOR0);
    pin_init(&A[1], (uint16_t *)&PORTB, (uint16_t *)&TRISB, 
    2c18:	00 6c 20    	mov.w     #0x6c0, w0
    2c1a:	21 4e 20    	mov.w     #0x4e2, w1
    2c1c:	82 2c 20    	mov.w     #0x2c8, w2
    2c1e:	a8 2c 20    	mov.w     #0x2ca, w8
    2c20:	a9 94 20    	mov.w     #0x94a, w9
    2c22:	80 1f 78    	mov.w     w0, [w15++]
    2c24:	17 00 20    	mov.w     #0x1, w7
    2c26:	86 c0 b3    	mov.b     #0x8, w6
    2c28:	15 00 20    	mov.w     #0x1, w5
    2c2a:	14 c0 b3    	mov.b     #0x1, w4
    2c2c:	81 01 78    	mov.w     w1, w3
    2c2e:	88 00 78    	mov.w     w8, w1
    2c30:	09 00 78    	mov.w     w9, w0
    2c32:	63 00 07    	rcall     0x2cfa <_pin_init>
    2c34:	8f 87 e9    	dec2.w    w15, w15
             (uint16_t *)&ANSB, 1, 1, 8, 1, (uint16_t *)&RPOR0);
    pin_init(&A[2], (uint16_t *)&PORTB, (uint16_t *)&TRISB, 
    2c36:	c0 6c 20    	mov.w     #0x6cc, w0
    2c38:	21 4e 20    	mov.w     #0x4e2, w1
    2c3a:	82 2c 20    	mov.w     #0x2c8, w2
    2c3c:	a8 2c 20    	mov.w     #0x2ca, w8
    2c3e:	09 96 20    	mov.w     #0x960, w9
    2c40:	80 1f 78    	mov.w     w0, [w15++]
    2c42:	d7 00 20    	mov.w     #0xd, w7
    2c44:	86 c0 b3    	mov.b     #0x8, w6
    2c46:	25 00 20    	mov.w     #0x2, w5
    2c48:	24 c0 b3    	mov.b     #0x2, w4
    2c4a:	81 01 78    	mov.w     w1, w3
    2c4c:	88 00 78    	mov.w     w8, w1
    2c4e:	09 00 78    	mov.w     w9, w0
    2c50:	54 00 07    	rcall     0x2cfa <_pin_init>
    2c52:	8f 87 e9    	dec2.w    w15, w15
             (uint16_t *)&ANSB, 2, 2, 8, 13, (uint16_t *)&RPOR6);
    pin_init(&A[3], (uint16_t *)&PORTB, (uint16_t *)&TRISB, 
    2c54:	21 4e 20    	mov.w     #0x4e2, w1
    2c56:	82 2c 20    	mov.w     #0x2c8, w2
    2c58:	a8 2c 20    	mov.w     #0x2ca, w8
    2c5a:	69 97 20    	mov.w     #0x976, w9
    2c5c:	00 00 eb    	clr.w     w0
    2c5e:	80 1f 78    	mov.w     w0, [w15++]
    2c60:	80 83 eb    	setm.w    w7
    2c62:	00 43 eb    	clr.b     w6
    2c64:	35 00 20    	mov.w     #0x3, w5
    2c66:	34 c0 b3    	mov.b     #0x3, w4
    2c68:	81 01 78    	mov.w     w1, w3
    2c6a:	88 00 78    	mov.w     w8, w1
    2c6c:	09 00 78    	mov.w     w9, w0
    2c6e:	45 00 07    	rcall     0x2cfa <_pin_init>
    2c70:	8f 87 e9    	dec2.w    w15, w15
             (uint16_t *)&ANSB, 3, 3, 0, -1, (uint16_t *)NULL);
    pin_init(&A[4], (uint16_t *)&PORTB, (uint16_t *)&TRISB, 
    2c72:	c0 6d 20    	mov.w     #0x6dc, w0
    2c74:	21 4e 20    	mov.w     #0x4e2, w1
    2c76:	82 2c 20    	mov.w     #0x2c8, w2
    2c78:	a8 2c 20    	mov.w     #0x2ca, w8
    2c7a:	c9 98 20    	mov.w     #0x98c, w9
    2c7c:	80 1f 78    	mov.w     w0, [w15++]
    2c7e:	c7 01 20    	mov.w     #0x1c, w7
    2c80:	00 43 eb    	clr.b     w6
    2c82:	45 00 20    	mov.w     #0x4, w5
    2c84:	44 c0 b3    	mov.b     #0x4, w4
    2c86:	81 01 78    	mov.w     w1, w3
    2c88:	88 00 78    	mov.w     w8, w1
    2c8a:	09 00 78    	mov.w     w9, w0
    2c8c:	36 00 07    	rcall     0x2cfa <_pin_init>
    2c8e:	8f 87 e9    	dec2.w    w15, w15
             (uint16_t *)&ANSB, 4, 4, 0, 28, (uint16_t *)&RPOR14);
    pin_init(&A[5], (uint16_t *)&PORTB, (uint16_t *)&TRISB, 
    2c90:	20 6d 20    	mov.w     #0x6d2, w0
    2c92:	21 4e 20    	mov.w     #0x4e2, w1
    2c94:	82 2c 20    	mov.w     #0x2c8, w2
    2c96:	a8 2c 20    	mov.w     #0x2ca, w8
    2c98:	29 9a 20    	mov.w     #0x9a2, w9
    2c9a:	80 1f 78    	mov.w     w0, [w15++]
    2c9c:	27 01 20    	mov.w     #0x12, w7
    2c9e:	00 43 eb    	clr.b     w6
    2ca0:	55 00 20    	mov.w     #0x5, w5
    2ca2:	54 c0 b3    	mov.b     #0x5, w4
    2ca4:	81 01 78    	mov.w     w1, w3
    2ca6:	88 00 78    	mov.w     w8, w1
    2ca8:	09 00 78    	mov.w     w9, w0
    2caa:	27 00 07    	rcall     0x2cfa <_pin_init>
    2cac:	8f 87 e9    	dec2.w    w15, w15
             (uint16_t *)&ANSB, 5, 5, 0, 18, (uint16_t *)&RPOR9);
    for (i = 0; i<14; i++)
    2cae:	00 00 eb    	clr.w     w0
    2cb0:	00 0f 78    	mov.w     w0, [w14]
    2cb2:	07 00 37    	bra       0x2cc2 <.L14>

00002cb4 <.L15>:
        pin_digitalIn(&D[i]);
    2cb4:	1e 00 78    	mov.w     [w14], w0
    2cb6:	76 00 b9    	mul.su    w0, #0x16, w0
    2cb8:	80 00 78    	mov.w     w0, w1
    2cba:	00 80 20    	mov.w     #0x800, w0
    2cbc:	00 80 40    	add.w     w1, w0, w0
    2cbe:	49 00 07    	rcall     0x2d52 <_pin_digitalIn>
    2cc0:	1e 0f e8    	inc.w     [w14], [w14]

00002cc2 <.L14>:
    2cc2:	d0 00 20    	mov.w     #0xd, w0
    2cc4:	9e 0f 10    	subr.w    w0, [w14], [w15]
    2cc6:	f6 ff 36    	bra       LEU, 0x2cb4 <.L15>
    for (i = 0; i<6; i++)
    2cc8:	00 00 eb    	clr.w     w0
    2cca:	00 0f 78    	mov.w     w0, [w14]
    2ccc:	07 00 37    	bra       0x2cdc <.L17>

00002cce <.L18>:
        pin_analogIn(&A[i]);
    2cce:	1e 00 78    	mov.w     [w14], w0
    2cd0:	76 00 b9    	mul.su    w0, #0x16, w0
    2cd2:	80 00 78    	mov.w     w0, w1
    2cd4:	40 93 20    	mov.w     #0x934, w0
    2cd6:	00 80 40    	add.w     w1, w0, w0
    2cd8:	98 00 07    	rcall     0x2e0a <_pin_analogIn>
    2cda:	1e 0f e8    	inc.w     [w14], [w14]

00002cdc <.L17>:
    2cdc:	50 00 20    	mov.w     #0x5, w0
    2cde:	9e 0f 10    	subr.w    w0, [w14], [w15]
    2ce0:	f6 ff 36    	bra       LEU, 0x2cce <.L18>

    // Configure and enable the ADC module: 
    //   set output data format to fractional (FORM<1:0> = 0b10)
    //   set conversion trigger source select bits to internal counter 
    //     (SSRC<2:0> = 0b111)
    //   set auto-sample time bits to 12*TAD (SAMC<4:0> = 12)
    //   set conversion clock select bits to 64*TCY (ADCS<7:0> = 64)
    //   set initial channel selection to AN0
    AD1CON1 = 0x02E0; 
    2ce2:	00 2e 20    	mov.w     #0x2e0, w0
    2ce4:	00 19 88    	mov.w     w0, 0x320
    AD1CON2 = 0;
    2ce6:	00 00 eb    	clr.w     w0
    2ce8:	10 19 88    	mov.w     w0, 0x322
    AD1CON3 = 0x0C40;
    2cea:	00 c4 20    	mov.w     #0xc40, w0
    2cec:	20 19 88    	mov.w     w0, 0x324
    AD1CHS = 0;
    2cee:	00 00 eb    	clr.w     w0
    2cf0:	40 19 88    	mov.w     w0, 0x328
    AD1CON1bits.ADON = 1;
    2cf2:	21 e3 a8    	bset.b    0x321, #0x7
}
    2cf4:	4f 04 be    	mov.d     [--w15], w8
    2cf6:	00 80 fa    	ulnk      
    2cf8:	00 00 06    	return    

00002cfa <_pin_init>:

void pin_init(_PIN *self, uint16_t *port, uint16_t *tris, 
              uint16_t *ans, uint8_t bit, int annum, 
              uint8_t rpshift, uint16_t rpnum, uint16_t *rpor) {
    2cfa:	10 00 fa    	lnk       #0x10
    2cfc:	00 0f 78    	mov.w     w0, [w14]
    2cfe:	11 07 98    	mov.w     w1, [w14+2]
    2d00:	22 07 98    	mov.w     w2, [w14+4]
    2d02:	33 07 98    	mov.w     w3, [w14+6]
    2d04:	04 4f 98    	mov.b     w4, [w14+8]
    2d06:	55 07 98    	mov.w     w5, [w14+10]
    2d08:	46 4f 98    	mov.b     w6, [w14+12]
    2d0a:	77 07 98    	mov.w     w7, [w14+14]
    self->port = port;
    2d0c:	1e 00 78    	mov.w     [w14], w0
    2d0e:	9e 00 90    	mov.w     [w14+2], w1
    2d10:	01 08 78    	mov.w     w1, [w0]
    self->tris = tris;
    2d12:	1e 00 78    	mov.w     [w14], w0
    2d14:	ae 00 90    	mov.w     [w14+4], w1
    2d16:	11 00 98    	mov.w     w1, [w0+2]
    self->ans = ans;
    2d18:	1e 00 78    	mov.w     [w14], w0
    2d1a:	be 00 90    	mov.w     [w14+6], w1
    2d1c:	21 00 98    	mov.w     w1, [w0+4]
    self->bit = bit;
    2d1e:	1e 00 78    	mov.w     [w14], w0
    2d20:	8e 48 90    	mov.b     [w14+8], w1
    2d22:	61 40 98    	mov.b     w1, [w0+6]
    self->annum = annum;
    2d24:	1e 00 78    	mov.w     [w14], w0
    2d26:	de 00 90    	mov.w     [w14+10], w1
    2d28:	41 00 98    	mov.w     w1, [w0+8]
    self->rpshift = rpshift;
    2d2a:	1e 00 78    	mov.w     [w14], w0
    2d2c:	ce 48 90    	mov.b     [w14+12], w1
    2d2e:	21 48 98    	mov.b     w1, [w0+10]
    self->rpnum = rpnum;
    2d30:	fe 00 90    	mov.w     [w14+14], w1
    2d32:	1e 00 78    	mov.w     [w14], w0
    2d34:	61 00 98    	mov.w     w1, [w0+12]
    self->rpor = rpor;
    2d36:	1e 00 78    	mov.w     [w14], w0
    2d38:	ce b8 97    	mov.w     [w14-8], w1
    2d3a:	71 00 98    	mov.w     w1, [w0+14]
    self->owner = NULL;
    2d3c:	9e 00 78    	mov.w     [w14], w1
    2d3e:	00 00 eb    	clr.w     w0
    2d40:	80 08 98    	mov.w     w0, [w1+16]
    self->write = NULL;
    2d42:	9e 00 78    	mov.w     [w14], w1
    2d44:	00 00 eb    	clr.w     w0
    2d46:	90 08 98    	mov.w     w0, [w1+18]
    self->read = NULL;
    2d48:	9e 00 78    	mov.w     [w14], w1
    2d4a:	00 00 eb    	clr.w     w0
    2d4c:	a0 08 98    	mov.w     w0, [w1+20]
}
    2d4e:	00 80 fa    	ulnk      
    2d50:	00 00 06    	return    

00002d52 <_pin_digitalIn>:

void pin_digitalIn(_PIN *self) {
    2d52:	02 00 fa    	lnk       #0x2
    2d54:	00 0f 78    	mov.w     w0, [w14]
    if (self->ans)
    2d56:	1e 00 78    	mov.w     [w14], w0
    2d58:	20 00 90    	mov.w     [w0+4], w0
    2d5a:	00 00 e0    	cp0.w     w0
    2d5c:	0d 00 32    	bra       Z, 0x2d78 <.L24>
        bitclear(self->ans, self->bit);
    2d5e:	1e 00 78    	mov.w     [w14], w0
    2d60:	a0 01 90    	mov.w     [w0+4], w3
    2d62:	1e 00 78    	mov.w     [w14], w0
    2d64:	20 00 90    	mov.w     [w0+4], w0
    2d66:	10 01 78    	mov.w     [w0], w2
    2d68:	1e 00 78    	mov.w     [w14], w0
    2d6a:	60 40 90    	mov.b     [w0+6], w0
    2d6c:	80 80 fb    	ze        w0, w1
    2d6e:	10 00 20    	mov.w     #0x1, w0
    2d70:	01 00 dd    	sl.w      w0, w1, w0
    2d72:	00 80 ea    	com.w     w0, w0
    2d74:	00 00 61    	and.w     w2, w0, w0
    2d76:	80 09 78    	mov.w     w0, [w3]

00002d78 <.L24>:
    bitset(self->tris, self->bit);
    2d78:	1e 00 78    	mov.w     [w14], w0
    2d7a:	90 01 90    	mov.w     [w0+2], w3
    2d7c:	1e 00 78    	mov.w     [w14], w0
    2d7e:	10 00 90    	mov.w     [w0+2], w0
    2d80:	10 01 78    	mov.w     [w0], w2
    2d82:	1e 00 78    	mov.w     [w14], w0
    2d84:	60 40 90    	mov.b     [w0+6], w0
    2d86:	80 80 fb    	ze        w0, w1
    2d88:	10 00 20    	mov.w     #0x1, w0
    2d8a:	01 00 dd    	sl.w      w0, w1, w0
    2d8c:	00 00 71    	ior.w     w2, w0, w0
    2d8e:	80 09 78    	mov.w     w0, [w3]
    self->write = NULL;
    2d90:	9e 00 78    	mov.w     [w14], w1
    2d92:	00 00 eb    	clr.w     w0
    2d94:	90 08 98    	mov.w     w0, [w1+18]
    self->read = __digitalRead;    
    2d96:	9e 00 78    	mov.w     [w14], w1
    2d98:	80 a4 22    	mov.w     #0x2a48, w0
    2d9a:	a0 08 98    	mov.w     w0, [w1+20]
}
    2d9c:	00 80 fa    	ulnk      
    2d9e:	00 00 06    	return    

00002da0 <_pin_digitalOut>:

void pin_digitalOut(_PIN *self) {
    2da0:	02 00 fa    	lnk       #0x2
    2da2:	00 0f 78    	mov.w     w0, [w14]
    if (self->ans)
    2da4:	1e 00 78    	mov.w     [w14], w0
    2da6:	20 00 90    	mov.w     [w0+4], w0
    2da8:	00 00 e0    	cp0.w     w0
    2daa:	0d 00 32    	bra       Z, 0x2dc6 <.L28>
        bitclear(self->ans, self->bit);
    2dac:	1e 00 78    	mov.w     [w14], w0
    2dae:	a0 01 90    	mov.w     [w0+4], w3
    2db0:	1e 00 78    	mov.w     [w14], w0
    2db2:	20 00 90    	mov.w     [w0+4], w0
    2db4:	10 01 78    	mov.w     [w0], w2
    2db6:	1e 00 78    	mov.w     [w14], w0
    2db8:	60 40 90    	mov.b     [w0+6], w0
    2dba:	80 80 fb    	ze        w0, w1
    2dbc:	10 00 20    	mov.w     #0x1, w0
    2dbe:	01 00 dd    	sl.w      w0, w1, w0
    2dc0:	00 80 ea    	com.w     w0, w0
    2dc2:	00 00 61    	and.w     w2, w0, w0
    2dc4:	80 09 78    	mov.w     w0, [w3]

00002dc6 <.L28>:
    bitclear(self->port, self->bit);
    2dc6:	1e 00 78    	mov.w     [w14], w0
    2dc8:	90 01 78    	mov.w     [w0], w3
    2dca:	1e 00 78    	mov.w     [w14], w0
    2dcc:	10 00 78    	mov.w     [w0], w0
    2dce:	10 01 78    	mov.w     [w0], w2
    2dd0:	1e 00 78    	mov.w     [w14], w0
    2dd2:	60 40 90    	mov.b     [w0+6], w0
    2dd4:	80 80 fb    	ze        w0, w1
    2dd6:	10 00 20    	mov.w     #0x1, w0
    2dd8:	01 00 dd    	sl.w      w0, w1, w0
    2dda:	00 80 ea    	com.w     w0, w0
    2ddc:	00 00 61    	and.w     w2, w0, w0
    2dde:	80 09 78    	mov.w     w0, [w3]
    bitclear(self->tris, self->bit);
    2de0:	1e 00 78    	mov.w     [w14], w0
    2de2:	90 01 90    	mov.w     [w0+2], w3
    2de4:	1e 00 78    	mov.w     [w14], w0
    2de6:	10 00 90    	mov.w     [w0+2], w0
    2de8:	10 01 78    	mov.w     [w0], w2
    2dea:	1e 00 78    	mov.w     [w14], w0
    2dec:	60 40 90    	mov.b     [w0+6], w0
    2dee:	80 80 fb    	ze        w0, w1
    2df0:	10 00 20    	mov.w     #0x1, w0
    2df2:	01 00 dd    	sl.w      w0, w1, w0
    2df4:	00 80 ea    	com.w     w0, w0
    2df6:	00 00 61    	and.w     w2, w0, w0
    2df8:	80 09 78    	mov.w     w0, [w3]
    self->write = __digitalWrite;
    2dfa:	9e 00 78    	mov.w     [w14], w1
    2dfc:	40 a0 22    	mov.w     #0x2a04, w0
    2dfe:	90 08 98    	mov.w     w0, [w1+18]
    self->read = __digitalRead;
    2e00:	9e 00 78    	mov.w     [w14], w1
    2e02:	80 a4 22    	mov.w     #0x2a48, w0
    2e04:	a0 08 98    	mov.w     w0, [w1+20]
}
    2e06:	00 80 fa    	ulnk      
    2e08:	00 00 06    	return    

00002e0a <_pin_analogIn>:

void pin_analogIn(_PIN *self) {
    2e0a:	02 00 fa    	lnk       #0x2
    2e0c:	00 0f 78    	mov.w     w0, [w14]
    if (!(self->ans))
    2e0e:	1e 00 78    	mov.w     [w14], w0
    2e10:	20 00 90    	mov.w     [w0+4], w0
    2e12:	00 00 e0    	cp0.w     w0
    2e14:	1e 00 32    	bra       Z, 0x2e52 <.L34>
        return;
    bitset(self->tris, self->bit);
    2e16:	1e 00 78    	mov.w     [w14], w0
    2e18:	90 01 90    	mov.w     [w0+2], w3
    2e1a:	1e 00 78    	mov.w     [w14], w0
    2e1c:	10 00 90    	mov.w     [w0+2], w0
    2e1e:	10 01 78    	mov.w     [w0], w2
    2e20:	1e 00 78    	mov.w     [w14], w0
    2e22:	60 40 90    	mov.b     [w0+6], w0
    2e24:	80 80 fb    	ze        w0, w1
    2e26:	10 00 20    	mov.w     #0x1, w0
    2e28:	01 00 dd    	sl.w      w0, w1, w0
    2e2a:	00 00 71    	ior.w     w2, w0, w0
    2e2c:	80 09 78    	mov.w     w0, [w3]
    bitset(self->ans, self->bit);
    2e2e:	1e 00 78    	mov.w     [w14], w0
    2e30:	a0 01 90    	mov.w     [w0+4], w3
    2e32:	1e 00 78    	mov.w     [w14], w0
    2e34:	20 00 90    	mov.w     [w0+4], w0
    2e36:	10 01 78    	mov.w     [w0], w2
    2e38:	1e 00 78    	mov.w     [w14], w0
    2e3a:	60 40 90    	mov.b     [w0+6], w0
    2e3c:	80 80 fb    	ze        w0, w1
    2e3e:	10 00 20    	mov.w     #0x1, w0
    2e40:	01 00 dd    	sl.w      w0, w1, w0
    2e42:	00 00 71    	ior.w     w2, w0, w0
    2e44:	80 09 78    	mov.w     w0, [w3]
    self->write = NULL;
    2e46:	9e 00 78    	mov.w     [w14], w1
    2e48:	00 00 eb    	clr.w     w0
    2e4a:	90 08 98    	mov.w     w0, [w1+18]
    self->read = __analogRead;
    2e4c:	9e 00 78    	mov.w     [w14], w1
    2e4e:	00 a7 22    	mov.w     #0x2a70, w0
    2e50:	a0 08 98    	mov.w     w0, [w1+20]

00002e52 <.L34>:
}
    2e52:	00 80 fa    	ulnk      
    2e54:	00 00 06    	return    

00002e56 <_pin_set>:

void pin_set(_PIN *self) {
    2e56:	02 00 fa    	lnk       #0x2
    2e58:	00 0f 78    	mov.w     w0, [w14]
    if (self->write==__digitalWrite)
    2e5a:	1e 00 78    	mov.w     [w14], w0
    2e5c:	90 08 90    	mov.w     [w0+18], w1
    2e5e:	40 a0 22    	mov.w     #0x2a04, w0
    2e60:	80 8f 50    	sub.w     w1, w0, [w15]
    2e62:	0c 00 3a    	bra       NZ, 0x2e7c <.L38>
        bitset(self->port, self->bit);
    2e64:	1e 00 78    	mov.w     [w14], w0
    2e66:	90 01 78    	mov.w     [w0], w3
    2e68:	1e 00 78    	mov.w     [w14], w0
    2e6a:	10 00 78    	mov.w     [w0], w0
    2e6c:	10 01 78    	mov.w     [w0], w2
    2e6e:	1e 00 78    	mov.w     [w14], w0
    2e70:	60 40 90    	mov.b     [w0+6], w0
    2e72:	80 80 fb    	ze        w0, w1
    2e74:	10 00 20    	mov.w     #0x1, w0
    2e76:	01 00 dd    	sl.w      w0, w1, w0
    2e78:	00 00 71    	ior.w     w2, w0, w0
    2e7a:	80 09 78    	mov.w     w0, [w3]

00002e7c <.L38>:
}
    2e7c:	00 80 fa    	ulnk      
    2e7e:	00 00 06    	return    

00002e80 <_pin_clear>:

void pin_clear(_PIN *self) {
    2e80:	02 00 fa    	lnk       #0x2
    2e82:	00 0f 78    	mov.w     w0, [w14]
    if (self->write==__digitalWrite)
    2e84:	1e 00 78    	mov.w     [w14], w0
    2e86:	90 08 90    	mov.w     [w0+18], w1
    2e88:	40 a0 22    	mov.w     #0x2a04, w0
    2e8a:	80 8f 50    	sub.w     w1, w0, [w15]
    2e8c:	0d 00 3a    	bra       NZ, 0x2ea8 <.L42>
        bitclear(self->port, self->bit);
    2e8e:	1e 00 78    	mov.w     [w14], w0
    2e90:	90 01 78    	mov.w     [w0], w3
    2e92:	1e 00 78    	mov.w     [w14], w0
    2e94:	10 00 78    	mov.w     [w0], w0
    2e96:	10 01 78    	mov.w     [w0], w2
    2e98:	1e 00 78    	mov.w     [w14], w0
    2e9a:	60 40 90    	mov.b     [w0+6], w0
    2e9c:	80 80 fb    	ze        w0, w1
    2e9e:	10 00 20    	mov.w     #0x1, w0
    2ea0:	01 00 dd    	sl.w      w0, w1, w0
    2ea2:	00 80 ea    	com.w     w0, w0
    2ea4:	00 00 61    	and.w     w2, w0, w0
    2ea6:	80 09 78    	mov.w     w0, [w3]

00002ea8 <.L42>:
}
    2ea8:	00 80 fa    	ulnk      
    2eaa:	00 00 06    	return    

00002eac <_pin_toggle>:

void pin_toggle(_PIN *self) {
    2eac:	02 00 fa    	lnk       #0x2
    2eae:	00 0f 78    	mov.w     w0, [w14]
    if (self->write==__digitalWrite)
    2eb0:	1e 00 78    	mov.w     [w14], w0
    2eb2:	90 08 90    	mov.w     [w0+18], w1
    2eb4:	40 a0 22    	mov.w     #0x2a04, w0
    2eb6:	80 8f 50    	sub.w     w1, w0, [w15]
    2eb8:	0c 00 3a    	bra       NZ, 0x2ed2 <.L46>
        bitflip(self->port, self->bit);
    2eba:	1e 00 78    	mov.w     [w14], w0
    2ebc:	90 01 78    	mov.w     [w0], w3
    2ebe:	1e 00 78    	mov.w     [w14], w0
    2ec0:	10 00 78    	mov.w     [w0], w0
    2ec2:	10 01 78    	mov.w     [w0], w2
    2ec4:	1e 00 78    	mov.w     [w14], w0
    2ec6:	60 40 90    	mov.b     [w0+6], w0
    2ec8:	80 80 fb    	ze        w0, w1
    2eca:	10 00 20    	mov.w     #0x1, w0
    2ecc:	01 00 dd    	sl.w      w0, w1, w0
    2ece:	00 00 69    	xor.w     w2, w0, w0
    2ed0:	80 09 78    	mov.w     w0, [w3]

00002ed2 <.L46>:
}
    2ed2:	00 80 fa    	ulnk      
    2ed4:	00 00 06    	return    

00002ed6 <_pin_write>:

void pin_write(_PIN *self, uint16_t val) {
    2ed6:	04 00 fa    	lnk       #0x4
    2ed8:	00 0f 78    	mov.w     w0, [w14]
    2eda:	11 07 98    	mov.w     w1, [w14+2]
    if (self->write)
    2edc:	1e 00 78    	mov.w     [w14], w0
    2ede:	10 08 90    	mov.w     [w0+18], w0
    2ee0:	00 00 e0    	cp0.w     w0
    2ee2:	05 00 32    	bra       Z, 0x2eee <.L50>
        self->write(self, val);
    2ee4:	1e 00 78    	mov.w     [w14], w0
    2ee6:	10 09 90    	mov.w     [w0+18], w2
    2ee8:	9e 00 90    	mov.w     [w14+2], w1
    2eea:	1e 00 78    	mov.w     [w14], w0
    2eec:	02 00 01    	call      w2

00002eee <.L50>:
}
    2eee:	00 80 fa    	ulnk      
    2ef0:	00 00 06    	return    

00002ef2 <_pin_read>:

uint16_t pin_read(_PIN *self) {
    2ef2:	04 00 fa    	lnk       #0x4
    2ef4:	00 0f 78    	mov.w     w0, [w14]
    if (self->read)
    2ef6:	1e 00 78    	mov.w     [w14], w0
    2ef8:	20 08 90    	mov.w     [w0+20], w0
    2efa:	00 00 e0    	cp0.w     w0
    2efc:	06 00 32    	bra       Z, 0x2f0a <.L52>
        return self->read(self);
    2efe:	1e 00 78    	mov.w     [w14], w0
    2f00:	a0 08 90    	mov.w     [w0+20], w1
    2f02:	1e 00 78    	mov.w     [w14], w0
    2f04:	01 00 01    	call      w1
    2f06:	10 07 98    	mov.w     w0, [w14+2]
    2f08:	02 00 37    	bra       0x2f0e <.L54>

00002f0a <.L52>:
    else
        return 0xFFFF;
    2f0a:	00 80 eb    	setm.w    w0
    2f0c:	10 07 98    	mov.w     w0, [w14+2]

00002f0e <.L54>:
    2f0e:	1e 00 90    	mov.w     [w14+2], w0
    2f10:	00 80 fa    	ulnk      
    2f12:	00 00 06    	return    
Disassembly of section .dinit:

00002f14 <.dinit>:
    2f14:	d8 0a 00    	nop       
    2f16:	28 00 00    	nop       
    2f18:	80 00 00    	nop       
    2f1a:	00 08 00    	nop       
    2f1c:	b8 01 00    	nop       
    2f1e:	80 00 00    	nop       
    2f20:	b8 09 00    	nop       
    2f22:	20 01 00    	nop       
    2f24:	80 00 00    	nop       
    2f26:	a0 0b 00    	nop       
    2f28:	26 00 00    	nop       
    2f2a:	82 00 00    	nop       
    2f2c:	a2 0b e0    	.pword 0xe00ba2
    2f2e:	0b 00 00    	nop       
    2f30:	e0 0b 09    	repeat    #0xbe0
    2f32:	00 00 00    	nop       
    2f34:	02 00 de    	lsr.w     w0, w2, w0
    2f36:	0b 00 00    	nop       
    2f38:	de 0b 06    	.pword 0x060bde
    2f3a:	02 01 00    	nop       
	...
    2f40:	00 00 06    	return    
    2f42:	02 02 00    	nop       
    2f44:	00 00 00    	nop       
    2f46:	de 0b 00    	nop       
    2f48:	06 00 00    	nop       
    2f4a:	80 00 00    	nop       
    2f4c:	00 0b 00    	nop       
    2f4e:	a0 00 00    	nop       
    2f50:	82 00 00    	nop       
    2f52:	01 00 00    	nop       
    2f54:	00 00 00    	nop       
    2f56:	00 00 0a    	.pword 0x0a0000
	...
    2f5c:	00 64 00    	nop       
	...
    2f62:	e8 03 00    	nop       
    2f64:	00 00 00    	nop       
    2f66:	00 00 10    	subr.w    w0, w0, w0
    2f68:	27 00 00    	nop       
    2f6a:	00 00 00    	nop       
    2f6c:	00 a0 86    	mov.w     0xd400, w0
    2f6e:	01 00 00    	nop       
    2f70:	00 00 00    	nop       
    2f72:	40 42 0f    	bra       SB, 0xb3f4
    2f74:	00 00 00    	nop       
    2f76:	00 00 80    	mov.w     0x0, w0
    2f78:	96 98 00    	nop       
    2f7a:	00 00 00    	nop       
    2f7c:	00 00 e1    	cp.w      w0, w0
    2f7e:	f5 05 00    	nop       
    2f80:	00 00 00    	nop       
    2f82:	00 ca 9a    	mov.b     w0, [w4+328]
    2f84:	3b 00 00    	nop       
    2f86:	00 00 00    	nop       
    2f88:	e4 0b 54    	sub.w     w8, #0x4, [w7]
    2f8a:	02 00 00    	nop       
    2f8c:	00 00 e8    	inc.w     w0, w0
    2f8e:	76 48 17    	subr.b    w14, #0x16, [w0]
    2f90:	00 00 00    	nop       
    2f92:	00 10 a5    	btst.c    w0, w2
    2f94:	d4 e8 00    	nop       
    2f96:	00 00 00    	nop       
    2f98:	a0 72 4e    	.pword 0x4e72a0
    2f9a:	18 09 00    	nop       
    2f9c:	00 00 40    	add.w     w0, w0, w0
    2f9e:	7a 10 f3    	.pword 0xf3107a
    2fa0:	5a 00 00    	nop       
    2fa2:	00 80 c6    	mac       w6 * w7, B, [w8], w4, [w10], w4, w13
    2fa4:	a4 7e 8d    	mov.w     w4, 0xafd4
    2fa6:	03 00 00    	nop       
    2fa8:	00 c1 6f    	xor.b     w15, w0, w2
    2faa:	f2 86 23    	mov.w     #0x386f, w2
    2fac:	00 00 00    	nop       
    2fae:	8a 5d 78    	mov.b     w10, [w11++]
    2fb0:	45 63 01    	.pword 0x016345
    2fb2:	00 00 64    	and.w     w8, w0, w0
    2fb4:	a7 b3 b6    	xor.w     0x13a7
    2fb6:	e0 0d 00    	nop       
    2fb8:	00 e8 89    	mov.w     w0, 0x3d00
    2fba:	04 23 c7    	movsac    A, [w9+w12], w6, [w10]+=2, w4, w13
    2fbc:	8a 00 00    	nop       
    2fbe:	c6 0b 00    	nop       
    2fc0:	18 00 00    	nop       
    2fc2:	82 00 00    	nop       
    2fc4:	28 6e 75    	ior.b     w10, [w8--], [++w12]
    2fc6:	6c 6c 29    	mov.w     #0x96c6, w12
    2fc8:	00 30 31    	bra       C, 0x8fca
    2fca:	32 33 34    	bra       LE, 0x9630
    2fcc:	35 36 37    	bra       0x9c38
    2fce:	38 39 61    	.pword 0x613938
    2fd0:	62 63 64    	and.b     w8, #0x2, [--w6]
    2fd2:	65 66 00    	nop       
    2fd4:	00 00 00    	nop       
Disassembly of section .text:

00002fd6 <_main>:
#include <stdio.h>

uint8_t string[40];

int16_t main(void) {
    2fd6:	00 00 fa    	lnk       #0x0
    init_clock();
    2fd8:	00 10 20    	mov.w     #0x100, w0
    2fda:	20 3a 88    	mov.w     w0, 0x744
    init_uart();
    2fdc:	02 f8 07    	rcall     0x1fe2 <_init_uart>

    printf("Hello World!\n");
    2fde:	a0 c0 29    	mov.w     #0x9c0a, w0
    2fe0:	50 f3 07    	rcall     0x1682 <_puts>

    printf("What is your name? ");
    2fe2:	70 c1 29    	mov.w     #0x9c17, w0
    2fe4:	80 1f 78    	mov.w     w0, [w15++]
    2fe6:	57 f3 07    	rcall     0x1696 <__printf_0>
    2fe8:	8f 87 e9    	dec2.w    w15, w15
    uart_gets(&uart1, string, 40);
    2fea:	82 02 20    	mov.w     #0x28, w2
    2fec:	81 ad 20    	mov.w     #0xad8, w1
    2fee:	80 9b 20    	mov.w     #0x9b8, w0
    2ff0:	7e fc 07    	rcall     0x28ee <_uart_gets>
    printf("Hello %s!\n", string);
    2ff2:	80 ad 20    	mov.w     #0xad8, w0
    2ff4:	80 1f 78    	mov.w     w0, [w15++]
    2ff6:	b0 c2 29    	mov.w     #0x9c2b, w0
    2ff8:	80 1f 78    	mov.w     w0, [w15++]
    2ffa:	4d f3 07    	rcall     0x1696 <__printf_0>
    2ffc:	e4 87 57    	sub.w     w15, #0x4, w15

    printf("Type something at the prompt.\n");
    2ffe:	60 c3 29    	mov.w     #0x9c36, w0
    3000:	80 1f 78    	mov.w     w0, [w15++]
    3002:	49 f3 07    	rcall     0x1696 <__printf_0>
    3004:	8f 87 e9    	dec2.w    w15, w15

00003006 <.L2>:

    while (1) {
        printf(">> ");
    3006:	50 c5 29    	mov.w     #0x9c55, w0
    3008:	80 1f 78    	mov.w     w0, [w15++]
    300a:	45 f3 07    	rcall     0x1696 <__printf_0>
    300c:	8f 87 e9    	dec2.w    w15, w15
        uart_gets(&uart1, string, 40);
    300e:	82 02 20    	mov.w     #0x28, w2
    3010:	81 ad 20    	mov.w     #0xad8, w1
    3012:	80 9b 20    	mov.w     #0x9b8, w0
    3014:	6c fc 07    	rcall     0x28ee <_uart_gets>
        printf("You typed '%s'\n", string);
    3016:	80 ad 20    	mov.w     #0xad8, w0
    3018:	80 1f 78    	mov.w     w0, [w15++]
    301a:	90 c5 29    	mov.w     #0x9c59, w0
    301c:	80 1f 78    	mov.w     w0, [w15++]
    301e:	3b f3 07    	rcall     0x1696 <__printf_0>
    3020:	e4 87 57    	sub.w     w15, #0x4, w15
    }
    3022:	f1 ff 37    	bra       0x3006 <.L2>
Disassembly of section .isr:

00003024 <__DefaultInterrupt>:
    3024:	00 40 da    	.pword 0xda4000
    3026:	00 00 fe    	reset     
